
lengthoflastwordO1.elf:     file format elf32-littleriscv


Disassembly of section .text:

00010094 <exit>:
   10094:	ff010113          	addi	sp,sp,-16
   10098:	00000593          	li	a1,0
   1009c:	00812423          	sw	s0,8(sp)
   100a0:	00112623          	sw	ra,12(sp)
   100a4:	00050413          	mv	s0,a0
   100a8:	514030ef          	jal	ra,135bc <__call_exitprocs>
   100ac:	2281a503          	lw	a0,552(gp) # 23ae8 <_global_impure_ptr>
   100b0:	03c52783          	lw	a5,60(a0)
   100b4:	00078463          	beqz	a5,100bc <exit+0x28>
   100b8:	000780e7          	jalr	a5
   100bc:	00040513          	mv	a0,s0
   100c0:	31d0d0ef          	jal	ra,1dbdc <_exit>

000100c4 <register_fini>:
   100c4:	00000793          	li	a5,0
   100c8:	00078863          	beqz	a5,100d8 <register_fini+0x14>
   100cc:	00000517          	auipc	a0,0x0
   100d0:	21c50513          	addi	a0,a0,540 # 102e8 <__libc_fini_array>
   100d4:	2000006f          	j	102d4 <atexit>
   100d8:	00008067          	ret

000100dc <_start>:
   100dc:	00013197          	auipc	gp,0x13
   100e0:	7e418193          	addi	gp,gp,2020 # 238c0 <__global_pointer$>
   100e4:	24418513          	addi	a0,gp,580 # 23b04 <completed.1>
   100e8:	57018613          	addi	a2,gp,1392 # 23e30 <__BSS_END__>
   100ec:	40a60633          	sub	a2,a2,a0
   100f0:	00000593          	li	a1,0
   100f4:	2e4000ef          	jal	ra,103d8 <memset>
   100f8:	00000517          	auipc	a0,0x0
   100fc:	1f050513          	addi	a0,a0,496 # 102e8 <__libc_fini_array>
   10100:	1d4000ef          	jal	ra,102d4 <atexit>
   10104:	240000ef          	jal	ra,10344 <__libc_init_array>
   10108:	00012503          	lw	a0,0(sp)
   1010c:	00410593          	addi	a1,sp,4
   10110:	00000613          	li	a2,0
   10114:	114000ef          	jal	ra,10228 <main>
   10118:	f7dff06f          	j	10094 <exit>

0001011c <__do_global_dtors_aux>:
   1011c:	ff010113          	addi	sp,sp,-16
   10120:	00812423          	sw	s0,8(sp)
   10124:	24418413          	addi	s0,gp,580 # 23b04 <completed.1>
   10128:	00044783          	lbu	a5,0(s0)
   1012c:	00112623          	sw	ra,12(sp)
   10130:	02079263          	bnez	a5,10154 <__do_global_dtors_aux+0x38>
   10134:	00000793          	li	a5,0
   10138:	00078a63          	beqz	a5,1014c <__do_global_dtors_aux+0x30>
   1013c:	00013517          	auipc	a0,0x13
   10140:	ec450513          	addi	a0,a0,-316 # 23000 <__EH_FRAME_BEGIN__>
   10144:	00000097          	auipc	ra,0x0
   10148:	000000e7          	jalr	zero # 0 <exit-0x10094>
   1014c:	00100793          	li	a5,1
   10150:	00f40023          	sb	a5,0(s0)
   10154:	00c12083          	lw	ra,12(sp)
   10158:	00812403          	lw	s0,8(sp)
   1015c:	01010113          	addi	sp,sp,16
   10160:	00008067          	ret

00010164 <frame_dummy>:
   10164:	00000793          	li	a5,0
   10168:	00078c63          	beqz	a5,10180 <frame_dummy+0x1c>
   1016c:	28818593          	addi	a1,gp,648 # 23b48 <object.0>
   10170:	00013517          	auipc	a0,0x13
   10174:	e9050513          	addi	a0,a0,-368 # 23000 <__EH_FRAME_BEGIN__>
   10178:	00000317          	auipc	t1,0x0
   1017c:	00000067          	jr	zero # 0 <exit-0x10094>
   10180:	00008067          	ret

00010184 <lengthOfLastWord>:
   10184:	00050693          	mv	a3,a0
   10188:	00054783          	lbu	a5,0(a0)
   1018c:	08078063          	beqz	a5,1020c <lengthOfLastWord+0x88>
   10190:	00000513          	li	a0,0
   10194:	00050793          	mv	a5,a0
   10198:	00150513          	addi	a0,a0,1
   1019c:	00a68733          	add	a4,a3,a0
   101a0:	00074703          	lbu	a4,0(a4)
   101a4:	fe0718e3          	bnez	a4,10194 <lengthOfLastWord+0x10>
   101a8:	00050593          	mv	a1,a0
   101ac:	00f687b3          	add	a5,a3,a5
   101b0:	0007c683          	lbu	a3,0(a5)
   101b4:	02000713          	li	a4,32
   101b8:	02e69063          	bne	a3,a4,101d8 <lengthOfLastWord+0x54>
   101bc:	02000693          	li	a3,32
   101c0:	fff78793          	addi	a5,a5,-1
   101c4:	0007c703          	lbu	a4,0(a5)
   101c8:	fed70ce3          	beq	a4,a3,101c0 <lengthOfLastWord+0x3c>
   101cc:	00070693          	mv	a3,a4
   101d0:	02000713          	li	a4,32
   101d4:	02e68863          	beq	a3,a4,10204 <lengthOfLastWord+0x80>
   101d8:	04050663          	beqz	a0,10224 <lengthOfLastWord+0xa0>
   101dc:	00078713          	mv	a4,a5
   101e0:	00078813          	mv	a6,a5
   101e4:	02000613          	li	a2,32
   101e8:	fff70713          	addi	a4,a4,-1
   101ec:	40e78533          	sub	a0,a5,a4
   101f0:	00074683          	lbu	a3,0(a4)
   101f4:	02c68863          	beq	a3,a2,10224 <lengthOfLastWord+0xa0>
   101f8:	00b706b3          	add	a3,a4,a1
   101fc:	fed816e3          	bne	a6,a3,101e8 <lengthOfLastWord+0x64>
   10200:	00008067          	ret
   10204:	00000513          	li	a0,0
   10208:	00008067          	ret
   1020c:	fff50793          	addi	a5,a0,-1
   10210:	fff54683          	lbu	a3,-1(a0)
   10214:	02000713          	li	a4,32
   10218:	00000513          	li	a0,0
   1021c:	00000593          	li	a1,0
   10220:	f8e68ee3          	beq	a3,a4,101bc <lengthOfLastWord+0x38>
   10224:	00008067          	ret

00010228 <main>:
   10228:	fe010113          	addi	sp,sp,-32
   1022c:	00112e23          	sw	ra,28(sp)
   10230:	00812c23          	sw	s0,24(sp)
   10234:	00912a23          	sw	s1,20(sp)
   10238:	01212823          	sw	s2,16(sp)
   1023c:	01312623          	sw	s3,12(sp)
   10240:	01412423          	sw	s4,8(sp)
   10244:	01512223          	sw	s5,4(sp)
   10248:	00021ab7          	lui	s5,0x21
   1024c:	738a8513          	addi	a0,s5,1848 # 21738 <__clzsi2+0x88>
   10250:	f35ff0ef          	jal	ra,10184 <lengthOfLastWord>
   10254:	00050413          	mv	s0,a0
   10258:	00021a37          	lui	s4,0x21
   1025c:	744a0513          	addi	a0,s4,1860 # 21744 <__clzsi2+0x94>
   10260:	f25ff0ef          	jal	ra,10184 <lengthOfLastWord>
   10264:	00050913          	mv	s2,a0
   10268:	000219b7          	lui	s3,0x21
   1026c:	75898513          	addi	a0,s3,1880 # 21758 <__clzsi2+0xa8>
   10270:	f15ff0ef          	jal	ra,10184 <lengthOfLastWord>
   10274:	00050493          	mv	s1,a0
   10278:	00040613          	mv	a2,s0
   1027c:	738a8593          	addi	a1,s5,1848
   10280:	00021437          	lui	s0,0x21
   10284:	75c40513          	addi	a0,s0,1884 # 2175c <__clzsi2+0xac>
   10288:	26c000ef          	jal	ra,104f4 <printf>
   1028c:	00090613          	mv	a2,s2
   10290:	744a0593          	addi	a1,s4,1860
   10294:	75c40513          	addi	a0,s0,1884
   10298:	25c000ef          	jal	ra,104f4 <printf>
   1029c:	00048613          	mv	a2,s1
   102a0:	75898593          	addi	a1,s3,1880
   102a4:	75c40513          	addi	a0,s0,1884
   102a8:	24c000ef          	jal	ra,104f4 <printf>
   102ac:	00000513          	li	a0,0
   102b0:	01c12083          	lw	ra,28(sp)
   102b4:	01812403          	lw	s0,24(sp)
   102b8:	01412483          	lw	s1,20(sp)
   102bc:	01012903          	lw	s2,16(sp)
   102c0:	00c12983          	lw	s3,12(sp)
   102c4:	00812a03          	lw	s4,8(sp)
   102c8:	00412a83          	lw	s5,4(sp)
   102cc:	02010113          	addi	sp,sp,32
   102d0:	00008067          	ret

000102d4 <atexit>:
   102d4:	00050593          	mv	a1,a0
   102d8:	00000693          	li	a3,0
   102dc:	00000613          	li	a2,0
   102e0:	00000513          	li	a0,0
   102e4:	1f40306f          	j	134d8 <__register_exitproc>

000102e8 <__libc_fini_array>:
   102e8:	ff010113          	addi	sp,sp,-16
   102ec:	00812423          	sw	s0,8(sp)
   102f0:	00013797          	auipc	a5,0x13
   102f4:	dcc78793          	addi	a5,a5,-564 # 230bc <__do_global_dtors_aux_fini_array_entry>
   102f8:	00013417          	auipc	s0,0x13
   102fc:	dc840413          	addi	s0,s0,-568 # 230c0 <impure_data>
   10300:	40f40433          	sub	s0,s0,a5
   10304:	00912223          	sw	s1,4(sp)
   10308:	00112623          	sw	ra,12(sp)
   1030c:	40245493          	srai	s1,s0,0x2
   10310:	02048063          	beqz	s1,10330 <__libc_fini_array+0x48>
   10314:	ffc40413          	addi	s0,s0,-4
   10318:	00f40433          	add	s0,s0,a5
   1031c:	00042783          	lw	a5,0(s0)
   10320:	fff48493          	addi	s1,s1,-1
   10324:	ffc40413          	addi	s0,s0,-4
   10328:	000780e7          	jalr	a5
   1032c:	fe0498e3          	bnez	s1,1031c <__libc_fini_array+0x34>
   10330:	00c12083          	lw	ra,12(sp)
   10334:	00812403          	lw	s0,8(sp)
   10338:	00412483          	lw	s1,4(sp)
   1033c:	01010113          	addi	sp,sp,16
   10340:	00008067          	ret

00010344 <__libc_init_array>:
   10344:	ff010113          	addi	sp,sp,-16
   10348:	00812423          	sw	s0,8(sp)
   1034c:	01212023          	sw	s2,0(sp)
   10350:	00013797          	auipc	a5,0x13
   10354:	d6478793          	addi	a5,a5,-668 # 230b4 <__init_array_start>
   10358:	00013417          	auipc	s0,0x13
   1035c:	d5c40413          	addi	s0,s0,-676 # 230b4 <__init_array_start>
   10360:	00112623          	sw	ra,12(sp)
   10364:	00912223          	sw	s1,4(sp)
   10368:	40878933          	sub	s2,a5,s0
   1036c:	02878063          	beq	a5,s0,1038c <__libc_init_array+0x48>
   10370:	40295913          	srai	s2,s2,0x2
   10374:	00000493          	li	s1,0
   10378:	00042783          	lw	a5,0(s0)
   1037c:	00148493          	addi	s1,s1,1
   10380:	00440413          	addi	s0,s0,4
   10384:	000780e7          	jalr	a5
   10388:	ff24e8e3          	bltu	s1,s2,10378 <__libc_init_array+0x34>
   1038c:	00013797          	auipc	a5,0x13
   10390:	d3078793          	addi	a5,a5,-720 # 230bc <__do_global_dtors_aux_fini_array_entry>
   10394:	00013417          	auipc	s0,0x13
   10398:	d2040413          	addi	s0,s0,-736 # 230b4 <__init_array_start>
   1039c:	40878933          	sub	s2,a5,s0
   103a0:	40295913          	srai	s2,s2,0x2
   103a4:	00878e63          	beq	a5,s0,103c0 <__libc_init_array+0x7c>
   103a8:	00000493          	li	s1,0
   103ac:	00042783          	lw	a5,0(s0)
   103b0:	00148493          	addi	s1,s1,1
   103b4:	00440413          	addi	s0,s0,4
   103b8:	000780e7          	jalr	a5
   103bc:	ff24e8e3          	bltu	s1,s2,103ac <__libc_init_array+0x68>
   103c0:	00c12083          	lw	ra,12(sp)
   103c4:	00812403          	lw	s0,8(sp)
   103c8:	00412483          	lw	s1,4(sp)
   103cc:	00012903          	lw	s2,0(sp)
   103d0:	01010113          	addi	sp,sp,16
   103d4:	00008067          	ret

000103d8 <memset>:
   103d8:	00f00313          	li	t1,15
   103dc:	00050713          	mv	a4,a0
   103e0:	02c37e63          	bgeu	t1,a2,1041c <memset+0x44>
   103e4:	00f77793          	andi	a5,a4,15
   103e8:	0a079063          	bnez	a5,10488 <memset+0xb0>
   103ec:	08059263          	bnez	a1,10470 <memset+0x98>
   103f0:	ff067693          	andi	a3,a2,-16
   103f4:	00f67613          	andi	a2,a2,15
   103f8:	00e686b3          	add	a3,a3,a4
   103fc:	00b72023          	sw	a1,0(a4)
   10400:	00b72223          	sw	a1,4(a4)
   10404:	00b72423          	sw	a1,8(a4)
   10408:	00b72623          	sw	a1,12(a4)
   1040c:	01070713          	addi	a4,a4,16
   10410:	fed766e3          	bltu	a4,a3,103fc <memset+0x24>
   10414:	00061463          	bnez	a2,1041c <memset+0x44>
   10418:	00008067          	ret
   1041c:	40c306b3          	sub	a3,t1,a2
   10420:	00269693          	slli	a3,a3,0x2
   10424:	00000297          	auipc	t0,0x0
   10428:	005686b3          	add	a3,a3,t0
   1042c:	00c68067          	jr	12(a3)
   10430:	00b70723          	sb	a1,14(a4)
   10434:	00b706a3          	sb	a1,13(a4)
   10438:	00b70623          	sb	a1,12(a4)
   1043c:	00b705a3          	sb	a1,11(a4)
   10440:	00b70523          	sb	a1,10(a4)
   10444:	00b704a3          	sb	a1,9(a4)
   10448:	00b70423          	sb	a1,8(a4)
   1044c:	00b703a3          	sb	a1,7(a4)
   10450:	00b70323          	sb	a1,6(a4)
   10454:	00b702a3          	sb	a1,5(a4)
   10458:	00b70223          	sb	a1,4(a4)
   1045c:	00b701a3          	sb	a1,3(a4)
   10460:	00b70123          	sb	a1,2(a4)
   10464:	00b700a3          	sb	a1,1(a4)
   10468:	00b70023          	sb	a1,0(a4)
   1046c:	00008067          	ret
   10470:	0ff5f593          	zext.b	a1,a1
   10474:	00859693          	slli	a3,a1,0x8
   10478:	00d5e5b3          	or	a1,a1,a3
   1047c:	01059693          	slli	a3,a1,0x10
   10480:	00d5e5b3          	or	a1,a1,a3
   10484:	f6dff06f          	j	103f0 <memset+0x18>
   10488:	00279693          	slli	a3,a5,0x2
   1048c:	00000297          	auipc	t0,0x0
   10490:	005686b3          	add	a3,a3,t0
   10494:	00008293          	mv	t0,ra
   10498:	fa0680e7          	jalr	-96(a3)
   1049c:	00028093          	mv	ra,t0
   104a0:	ff078793          	addi	a5,a5,-16
   104a4:	40f70733          	sub	a4,a4,a5
   104a8:	00f60633          	add	a2,a2,a5
   104ac:	f6c378e3          	bgeu	t1,a2,1041c <memset+0x44>
   104b0:	f3dff06f          	j	103ec <memset+0x14>

000104b4 <_printf_r>:
   104b4:	fc010113          	addi	sp,sp,-64
   104b8:	02c12423          	sw	a2,40(sp)
   104bc:	02d12623          	sw	a3,44(sp)
   104c0:	02e12823          	sw	a4,48(sp)
   104c4:	02f12a23          	sw	a5,52(sp)
   104c8:	03012c23          	sw	a6,56(sp)
   104cc:	03112e23          	sw	a7,60(sp)
   104d0:	00058613          	mv	a2,a1
   104d4:	00852583          	lw	a1,8(a0)
   104d8:	02810693          	addi	a3,sp,40
   104dc:	00112e23          	sw	ra,28(sp)
   104e0:	00d12623          	sw	a3,12(sp)
   104e4:	05c000ef          	jal	ra,10540 <_vfprintf_r>
   104e8:	01c12083          	lw	ra,28(sp)
   104ec:	04010113          	addi	sp,sp,64
   104f0:	00008067          	ret

000104f4 <printf>:
   104f4:	fc010113          	addi	sp,sp,-64
   104f8:	02c12423          	sw	a2,40(sp)
   104fc:	02d12623          	sw	a3,44(sp)
   10500:	2301a303          	lw	t1,560(gp) # 23af0 <_impure_ptr>
   10504:	02b12223          	sw	a1,36(sp)
   10508:	02e12823          	sw	a4,48(sp)
   1050c:	02f12a23          	sw	a5,52(sp)
   10510:	03012c23          	sw	a6,56(sp)
   10514:	03112e23          	sw	a7,60(sp)
   10518:	00832583          	lw	a1,8(t1) # 10180 <frame_dummy+0x1c>
   1051c:	02410693          	addi	a3,sp,36
   10520:	00050613          	mv	a2,a0
   10524:	00030513          	mv	a0,t1
   10528:	00112e23          	sw	ra,28(sp)
   1052c:	00d12623          	sw	a3,12(sp)
   10530:	010000ef          	jal	ra,10540 <_vfprintf_r>
   10534:	01c12083          	lw	ra,28(sp)
   10538:	04010113          	addi	sp,sp,64
   1053c:	00008067          	ret

00010540 <_vfprintf_r>:
   10540:	e7010113          	addi	sp,sp,-400
   10544:	18112623          	sw	ra,396(sp)
   10548:	00b12423          	sw	a1,8(sp)
   1054c:	00c12623          	sw	a2,12(sp)
   10550:	00d12a23          	sw	a3,20(sp)
   10554:	17312e23          	sw	s3,380(sp)
   10558:	18812423          	sw	s0,392(sp)
   1055c:	18912223          	sw	s1,388(sp)
   10560:	19212023          	sw	s2,384(sp)
   10564:	17412c23          	sw	s4,376(sp)
   10568:	17512a23          	sw	s5,372(sp)
   1056c:	17612823          	sw	s6,368(sp)
   10570:	17712623          	sw	s7,364(sp)
   10574:	17812423          	sw	s8,360(sp)
   10578:	17912223          	sw	s9,356(sp)
   1057c:	17a12023          	sw	s10,352(sp)
   10580:	15b12e23          	sw	s11,348(sp)
   10584:	00050993          	mv	s3,a0
   10588:	075050ef          	jal	ra,15dfc <_localeconv_r>
   1058c:	00052783          	lw	a5,0(a0)
   10590:	00078513          	mv	a0,a5
   10594:	02f12c23          	sw	a5,56(sp)
   10598:	438090ef          	jal	ra,199d0 <strlen>
   1059c:	00050713          	mv	a4,a0
   105a0:	00800613          	li	a2,8
   105a4:	00000593          	li	a1,0
   105a8:	09010513          	addi	a0,sp,144
   105ac:	02e12a23          	sw	a4,52(sp)
   105b0:	e29ff0ef          	jal	ra,103d8 <memset>
   105b4:	00c12783          	lw	a5,12(sp)
   105b8:	00098663          	beqz	s3,105c4 <_vfprintf_r+0x84>
   105bc:	0389a703          	lw	a4,56(s3)
   105c0:	70070e63          	beqz	a4,10cdc <_vfprintf_r+0x79c>
   105c4:	00812703          	lw	a4,8(sp)
   105c8:	06472683          	lw	a3,100(a4)
   105cc:	00c71703          	lh	a4,12(a4)
   105d0:	0016f693          	andi	a3,a3,1
   105d4:	00069863          	bnez	a3,105e4 <_vfprintf_r+0xa4>
   105d8:	20077693          	andi	a3,a4,512
   105dc:	00069463          	bnez	a3,105e4 <_vfprintf_r+0xa4>
   105e0:	36c0106f          	j	1194c <_vfprintf_r+0x140c>
   105e4:	01271693          	slli	a3,a4,0x12
   105e8:	0206c863          	bltz	a3,10618 <_vfprintf_r+0xd8>
   105ec:	00812583          	lw	a1,8(sp)
   105f0:	00002637          	lui	a2,0x2
   105f4:	00c76733          	or	a4,a4,a2
   105f8:	0645a683          	lw	a3,100(a1)
   105fc:	ffffe637          	lui	a2,0xffffe
   10600:	01071713          	slli	a4,a4,0x10
   10604:	fff60613          	addi	a2,a2,-1 # ffffdfff <__BSS_END__+0xfffda1cf>
   10608:	41075713          	srai	a4,a4,0x10
   1060c:	00c6f6b3          	and	a3,a3,a2
   10610:	00e59623          	sh	a4,12(a1)
   10614:	06d5a223          	sw	a3,100(a1)
   10618:	00877693          	andi	a3,a4,8
   1061c:	26068663          	beqz	a3,10888 <_vfprintf_r+0x348>
   10620:	00812683          	lw	a3,8(sp)
   10624:	0106a683          	lw	a3,16(a3)
   10628:	26068063          	beqz	a3,10888 <_vfprintf_r+0x348>
   1062c:	01a77693          	andi	a3,a4,26
   10630:	00a00613          	li	a2,10
   10634:	28c68263          	beq	a3,a2,108b8 <_vfprintf_r+0x378>
   10638:	0ac10713          	addi	a4,sp,172
   1063c:	0ae12023          	sw	a4,160(sp)
   10640:	0a012423          	sw	zero,168(sp)
   10644:	0a012223          	sw	zero,164(sp)
   10648:	02012023          	sw	zero,32(sp)
   1064c:	02012623          	sw	zero,44(sp)
   10650:	02012823          	sw	zero,48(sp)
   10654:	00070413          	mv	s0,a4
   10658:	02012e23          	sw	zero,60(sp)
   1065c:	04012223          	sw	zero,68(sp)
   10660:	04012023          	sw	zero,64(sp)
   10664:	04012423          	sw	zero,72(sp)
   10668:	04012623          	sw	zero,76(sp)
   1066c:	00012623          	sw	zero,12(sp)
   10670:	c2818a93          	addi	s5,gp,-984 # 234e8 <__global_locale>
   10674:	02500d13          	li	s10,37
   10678:	00078b93          	mv	s7,a5
   1067c:	000b8493          	mv	s1,s7
   10680:	0e4aa903          	lw	s2,228(s5)
   10684:	3e8060ef          	jal	ra,16a6c <__locale_mb_cur_max>
   10688:	00050693          	mv	a3,a0
   1068c:	09010713          	addi	a4,sp,144
   10690:	00048613          	mv	a2,s1
   10694:	08010593          	addi	a1,sp,128
   10698:	00098513          	mv	a0,s3
   1069c:	000900e7          	jalr	s2
   106a0:	2a050c63          	beqz	a0,10958 <_vfprintf_r+0x418>
   106a4:	28054c63          	bltz	a0,1093c <_vfprintf_r+0x3fc>
   106a8:	08012783          	lw	a5,128(sp)
   106ac:	01a78663          	beq	a5,s10,106b8 <_vfprintf_r+0x178>
   106b0:	00a484b3          	add	s1,s1,a0
   106b4:	fcdff06f          	j	10680 <_vfprintf_r+0x140>
   106b8:	00050c13          	mv	s8,a0
   106bc:	41748cb3          	sub	s9,s1,s7
   106c0:	2b749263          	bne	s1,s7,10964 <_vfprintf_r+0x424>
   106c4:	fff00313          	li	t1,-1
   106c8:	0014ce03          	lbu	t3,1(s1)
   106cc:	06010ba3          	sb	zero,119(sp)
   106d0:	00148493          	addi	s1,s1,1
   106d4:	00000913          	li	s2,0
   106d8:	00000b13          	li	s6,0
   106dc:	05a00c13          	li	s8,90
   106e0:	00030a13          	mv	s4,t1
   106e4:	00148493          	addi	s1,s1,1
   106e8:	fe0e0793          	addi	a5,t3,-32
   106ec:	04fc6a63          	bltu	s8,a5,10740 <_vfprintf_r+0x200>
   106f0:	00011717          	auipc	a4,0x11
   106f4:	0dc70713          	addi	a4,a4,220 # 217cc <__clzsi2+0x11c>
   106f8:	00279793          	slli	a5,a5,0x2
   106fc:	00e787b3          	add	a5,a5,a4
   10700:	0007a783          	lw	a5,0(a5)
   10704:	00e787b3          	add	a5,a5,a4
   10708:	00078067          	jr	a5
   1070c:	00000913          	li	s2,0
   10710:	fd0e0693          	addi	a3,t3,-48
   10714:	00900713          	li	a4,9
   10718:	0004ce03          	lbu	t3,0(s1)
   1071c:	00291793          	slli	a5,s2,0x2
   10720:	012787b3          	add	a5,a5,s2
   10724:	00179793          	slli	a5,a5,0x1
   10728:	00f68933          	add	s2,a3,a5
   1072c:	fd0e0693          	addi	a3,t3,-48
   10730:	00148493          	addi	s1,s1,1
   10734:	fed772e3          	bgeu	a4,a3,10718 <_vfprintf_r+0x1d8>
   10738:	fe0e0793          	addi	a5,t3,-32
   1073c:	fafc7ae3          	bgeu	s8,a5,106f0 <_vfprintf_r+0x1b0>
   10740:	260e0063          	beqz	t3,109a0 <_vfprintf_r+0x460>
   10744:	0fc10623          	sb	t3,236(sp)
   10748:	06010ba3          	sb	zero,119(sp)
   1074c:	00100c13          	li	s8,1
   10750:	00000613          	li	a2,0
   10754:	00012823          	sw	zero,16(sp)
   10758:	00100c93          	li	s9,1
   1075c:	00000313          	li	t1,0
   10760:	02012423          	sw	zero,40(sp)
   10764:	02012223          	sw	zero,36(sp)
   10768:	00012c23          	sw	zero,24(sp)
   1076c:	0ec10b93          	addi	s7,sp,236
   10770:	002b7293          	andi	t0,s6,2
   10774:	00028463          	beqz	t0,1077c <_vfprintf_r+0x23c>
   10778:	002c0c13          	addi	s8,s8,2
   1077c:	084b7d93          	andi	s11,s6,132
   10780:	000d9663          	bnez	s11,1078c <_vfprintf_r+0x24c>
   10784:	41890733          	sub	a4,s2,s8
   10788:	4ce040e3          	bgtz	a4,11448 <_vfprintf_r+0xf08>
   1078c:	0a812a03          	lw	s4,168(sp)
   10790:	02060a63          	beqz	a2,107c4 <_vfprintf_r+0x284>
   10794:	0a412603          	lw	a2,164(sp)
   10798:	07710593          	addi	a1,sp,119
   1079c:	001a0a13          	addi	s4,s4,1
   107a0:	00160613          	addi	a2,a2,1
   107a4:	00100793          	li	a5,1
   107a8:	00b42023          	sw	a1,0(s0)
   107ac:	00f42223          	sw	a5,4(s0)
   107b0:	0b412423          	sw	s4,168(sp)
   107b4:	0ac12223          	sw	a2,164(sp)
   107b8:	00700593          	li	a1,7
   107bc:	00840413          	addi	s0,s0,8
   107c0:	3ac5cc63          	blt	a1,a2,10b78 <_vfprintf_r+0x638>
   107c4:	02028a63          	beqz	t0,107f8 <_vfprintf_r+0x2b8>
   107c8:	0a412603          	lw	a2,164(sp)
   107cc:	07810593          	addi	a1,sp,120
   107d0:	00b42023          	sw	a1,0(s0)
   107d4:	002a0a13          	addi	s4,s4,2
   107d8:	00200593          	li	a1,2
   107dc:	00160613          	addi	a2,a2,1
   107e0:	00b42223          	sw	a1,4(s0)
   107e4:	0b412423          	sw	s4,168(sp)
   107e8:	0ac12223          	sw	a2,164(sp)
   107ec:	00700593          	li	a1,7
   107f0:	00840413          	addi	s0,s0,8
   107f4:	52c5cae3          	blt	a1,a2,11528 <_vfprintf_r+0xfe8>
   107f8:	08000613          	li	a2,128
   107fc:	28cd80e3          	beq	s11,a2,1127c <_vfprintf_r+0xd3c>
   10800:	41930db3          	sub	s11,t1,s9
   10804:	37b046e3          	bgtz	s11,11370 <_vfprintf_r+0xe30>
   10808:	100b7613          	andi	a2,s6,256
   1080c:	06061ee3          	bnez	a2,11088 <_vfprintf_r+0xb48>
   10810:	0a412783          	lw	a5,164(sp)
   10814:	014c8733          	add	a4,s9,s4
   10818:	01742023          	sw	s7,0(s0)
   1081c:	00178793          	addi	a5,a5,1
   10820:	01942223          	sw	s9,4(s0)
   10824:	0ae12423          	sw	a4,168(sp)
   10828:	0af12223          	sw	a5,164(sp)
   1082c:	00700693          	li	a3,7
   10830:	46f6c863          	blt	a3,a5,10ca0 <_vfprintf_r+0x760>
   10834:	00840413          	addi	s0,s0,8
   10838:	004b7813          	andi	a6,s6,4
   1083c:	00080663          	beqz	a6,10848 <_vfprintf_r+0x308>
   10840:	41890cb3          	sub	s9,s2,s8
   10844:	51904ae3          	bgtz	s9,11558 <_vfprintf_r+0x1018>
   10848:	00090e93          	mv	t4,s2
   1084c:	01895463          	bge	s2,s8,10854 <_vfprintf_r+0x314>
   10850:	000c0e93          	mv	t4,s8
   10854:	00c12783          	lw	a5,12(sp)
   10858:	01d787b3          	add	a5,a5,t4
   1085c:	00f12623          	sw	a5,12(sp)
   10860:	16071c63          	bnez	a4,109d8 <_vfprintf_r+0x498>
   10864:	01012783          	lw	a5,16(sp)
   10868:	0a012223          	sw	zero,164(sp)
   1086c:	00078863          	beqz	a5,1087c <_vfprintf_r+0x33c>
   10870:	01012583          	lw	a1,16(sp)
   10874:	00098513          	mv	a0,s3
   10878:	12c050ef          	jal	ra,159a4 <_free_r>
   1087c:	0ac10413          	addi	s0,sp,172
   10880:	00048b93          	mv	s7,s1
   10884:	df9ff06f          	j	1067c <_vfprintf_r+0x13c>
   10888:	00812403          	lw	s0,8(sp)
   1088c:	00098513          	mv	a0,s3
   10890:	00f12623          	sw	a5,12(sp)
   10894:	00040593          	mv	a1,s0
   10898:	301020ef          	jal	ra,13398 <__swsetup_r>
   1089c:	00050463          	beqz	a0,108a4 <_vfprintf_r+0x364>
   108a0:	4f40206f          	j	12d94 <_vfprintf_r+0x2854>
   108a4:	00c41703          	lh	a4,12(s0)
   108a8:	00a00613          	li	a2,10
   108ac:	00c12783          	lw	a5,12(sp)
   108b0:	01a77693          	andi	a3,a4,26
   108b4:	d8c692e3          	bne	a3,a2,10638 <_vfprintf_r+0xf8>
   108b8:	00812603          	lw	a2,8(sp)
   108bc:	00e61683          	lh	a3,14(a2)
   108c0:	d606cce3          	bltz	a3,10638 <_vfprintf_r+0xf8>
   108c4:	06462683          	lw	a3,100(a2)
   108c8:	0016f693          	andi	a3,a3,1
   108cc:	00069863          	bnez	a3,108dc <_vfprintf_r+0x39c>
   108d0:	20077713          	andi	a4,a4,512
   108d4:	00071463          	bnez	a4,108dc <_vfprintf_r+0x39c>
   108d8:	34d0106f          	j	12424 <_vfprintf_r+0x1ee4>
   108dc:	01412683          	lw	a3,20(sp)
   108e0:	00812583          	lw	a1,8(sp)
   108e4:	00078613          	mv	a2,a5
   108e8:	00098513          	mv	a0,s3
   108ec:	065020ef          	jal	ra,13150 <__sbprintf>
   108f0:	00a12623          	sw	a0,12(sp)
   108f4:	1300006f          	j	10a24 <_vfprintf_r+0x4e4>
   108f8:	00098513          	mv	a0,s3
   108fc:	500050ef          	jal	ra,15dfc <_localeconv_r>
   10900:	00452783          	lw	a5,4(a0)
   10904:	00078513          	mv	a0,a5
   10908:	04f12623          	sw	a5,76(sp)
   1090c:	0c4090ef          	jal	ra,199d0 <strlen>
   10910:	00050793          	mv	a5,a0
   10914:	00098513          	mv	a0,s3
   10918:	00078c93          	mv	s9,a5
   1091c:	04f12423          	sw	a5,72(sp)
   10920:	4dc050ef          	jal	ra,15dfc <_localeconv_r>
   10924:	00852703          	lw	a4,8(a0)
   10928:	04e12023          	sw	a4,64(sp)
   1092c:	000c8463          	beqz	s9,10934 <_vfprintf_r+0x3f4>
   10930:	1ac0106f          	j	11adc <_vfprintf_r+0x159c>
   10934:	0004ce03          	lbu	t3,0(s1)
   10938:	dadff06f          	j	106e4 <_vfprintf_r+0x1a4>
   1093c:	00800613          	li	a2,8
   10940:	00000593          	li	a1,0
   10944:	09010513          	addi	a0,sp,144
   10948:	a91ff0ef          	jal	ra,103d8 <memset>
   1094c:	00100513          	li	a0,1
   10950:	00a484b3          	add	s1,s1,a0
   10954:	d2dff06f          	j	10680 <_vfprintf_r+0x140>
   10958:	00050c13          	mv	s8,a0
   1095c:	41748cb3          	sub	s9,s1,s7
   10960:	05748063          	beq	s1,s7,109a0 <_vfprintf_r+0x460>
   10964:	0a812a03          	lw	s4,168(sp)
   10968:	0a412683          	lw	a3,164(sp)
   1096c:	01742023          	sw	s7,0(s0)
   10970:	019a0733          	add	a4,s4,s9
   10974:	00168693          	addi	a3,a3,1
   10978:	01942223          	sw	s9,4(s0)
   1097c:	0ae12423          	sw	a4,168(sp)
   10980:	0ad12223          	sw	a3,164(sp)
   10984:	00700713          	li	a4,7
   10988:	00840413          	addi	s0,s0,8
   1098c:	02d74863          	blt	a4,a3,109bc <_vfprintf_r+0x47c>
   10990:	00c12783          	lw	a5,12(sp)
   10994:	019787b3          	add	a5,a5,s9
   10998:	00f12623          	sw	a5,12(sp)
   1099c:	d20c14e3          	bnez	s8,106c4 <_vfprintf_r+0x184>
   109a0:	0a812783          	lw	a5,168(sp)
   109a4:	00078463          	beqz	a5,109ac <_vfprintf_r+0x46c>
   109a8:	2250106f          	j	123cc <_vfprintf_r+0x1e8c>
   109ac:	00812783          	lw	a5,8(sp)
   109b0:	0a012223          	sw	zero,164(sp)
   109b4:	00c79783          	lh	a5,12(a5)
   109b8:	0500006f          	j	10a08 <_vfprintf_r+0x4c8>
   109bc:	00812583          	lw	a1,8(sp)
   109c0:	0a010613          	addi	a2,sp,160
   109c4:	00098513          	mv	a0,s3
   109c8:	54c090ef          	jal	ra,19f14 <__sprint_r>
   109cc:	02051a63          	bnez	a0,10a00 <_vfprintf_r+0x4c0>
   109d0:	0ac10413          	addi	s0,sp,172
   109d4:	fbdff06f          	j	10990 <_vfprintf_r+0x450>
   109d8:	00812583          	lw	a1,8(sp)
   109dc:	0a010613          	addi	a2,sp,160
   109e0:	00098513          	mv	a0,s3
   109e4:	530090ef          	jal	ra,19f14 <__sprint_r>
   109e8:	e6050ee3          	beqz	a0,10864 <_vfprintf_r+0x324>
   109ec:	01012f03          	lw	t5,16(sp)
   109f0:	000f0863          	beqz	t5,10a00 <_vfprintf_r+0x4c0>
   109f4:	000f0593          	mv	a1,t5
   109f8:	00098513          	mv	a0,s3
   109fc:	7a9040ef          	jal	ra,159a4 <_free_r>
   10a00:	00812783          	lw	a5,8(sp)
   10a04:	00c79783          	lh	a5,12(a5)
   10a08:	00812703          	lw	a4,8(sp)
   10a0c:	06472703          	lw	a4,100(a4)
   10a10:	00177713          	andi	a4,a4,1
   10a14:	2a070663          	beqz	a4,10cc0 <_vfprintf_r+0x780>
   10a18:	0407f793          	andi	a5,a5,64
   10a1c:	00078463          	beqz	a5,10a24 <_vfprintf_r+0x4e4>
   10a20:	3a00206f          	j	12dc0 <_vfprintf_r+0x2880>
   10a24:	18c12083          	lw	ra,396(sp)
   10a28:	18812403          	lw	s0,392(sp)
   10a2c:	00c12503          	lw	a0,12(sp)
   10a30:	18412483          	lw	s1,388(sp)
   10a34:	18012903          	lw	s2,384(sp)
   10a38:	17c12983          	lw	s3,380(sp)
   10a3c:	17812a03          	lw	s4,376(sp)
   10a40:	17412a83          	lw	s5,372(sp)
   10a44:	17012b03          	lw	s6,368(sp)
   10a48:	16c12b83          	lw	s7,364(sp)
   10a4c:	16812c03          	lw	s8,360(sp)
   10a50:	16412c83          	lw	s9,356(sp)
   10a54:	16012d03          	lw	s10,352(sp)
   10a58:	15c12d83          	lw	s11,348(sp)
   10a5c:	19010113          	addi	sp,sp,400
   10a60:	00008067          	ret
   10a64:	008b7713          	andi	a4,s6,8
   10a68:	000a0313          	mv	t1,s4
   10a6c:	00070463          	beqz	a4,10a74 <_vfprintf_r+0x534>
   10a70:	0180106f          	j	11a88 <_vfprintf_r+0x1548>
   10a74:	01412783          	lw	a5,20(sp)
   10a78:	00778a13          	addi	s4,a5,7
   10a7c:	ff8a7a13          	andi	s4,s4,-8
   10a80:	000a2783          	lw	a5,0(s4)
   10a84:	02f12623          	sw	a5,44(sp)
   10a88:	004a2783          	lw	a5,4(s4)
   10a8c:	02f12823          	sw	a5,48(sp)
   10a90:	008a0793          	addi	a5,s4,8
   10a94:	00f12a23          	sw	a5,20(sp)
   10a98:	03012a03          	lw	s4,48(sp)
   10a9c:	00013697          	auipc	a3,0x13
   10aa0:	fe468693          	addi	a3,a3,-28 # 23a80 <__SDATA_BEGIN__>
   10aa4:	0006ac03          	lw	s8,0(a3)
   10aa8:	001a1713          	slli	a4,s4,0x1
   10aac:	00175d93          	srli	s11,a4,0x1
   10ab0:	0046ac83          	lw	s9,4(a3)
   10ab4:	02c12703          	lw	a4,44(sp)
   10ab8:	000d8593          	mv	a1,s11
   10abc:	000c0613          	mv	a2,s8
   10ac0:	00070513          	mv	a0,a4
   10ac4:	000c8693          	mv	a3,s9
   10ac8:	00612c23          	sw	t1,24(sp)
   10acc:	01c12823          	sw	t3,16(sp)
   10ad0:	510100ef          	jal	ra,20fe0 <__unorddf2>
   10ad4:	01012e03          	lw	t3,16(sp)
   10ad8:	01812303          	lw	t1,24(sp)
   10adc:	00050463          	beqz	a0,10ae4 <_vfprintf_r+0x5a4>
   10ae0:	3580106f          	j	11e38 <_vfprintf_r+0x18f8>
   10ae4:	02c12683          	lw	a3,44(sp)
   10ae8:	000d8593          	mv	a1,s11
   10aec:	000c0613          	mv	a2,s8
   10af0:	00068513          	mv	a0,a3
   10af4:	000c8693          	mv	a3,s9
   10af8:	2f80f0ef          	jal	ra,1fdf0 <__ledf2>
   10afc:	01012e03          	lw	t3,16(sp)
   10b00:	01812303          	lw	t1,24(sp)
   10b04:	00a04463          	bgtz	a0,10b0c <_vfprintf_r+0x5cc>
   10b08:	3300106f          	j	11e38 <_vfprintf_r+0x18f8>
   10b0c:	02c12703          	lw	a4,44(sp)
   10b10:	000a0593          	mv	a1,s4
   10b14:	00000613          	li	a2,0
   10b18:	00070513          	mv	a0,a4
   10b1c:	00000693          	li	a3,0
   10b20:	2d00f0ef          	jal	ra,1fdf0 <__ledf2>
   10b24:	01012e03          	lw	t3,16(sp)
   10b28:	00055463          	bgez	a0,10b30 <_vfprintf_r+0x5f0>
   10b2c:	58d0106f          	j	128b8 <_vfprintf_r+0x2378>
   10b30:	07714603          	lbu	a2,119(sp)
   10b34:	04700713          	li	a4,71
   10b38:	00011b97          	auipc	s7,0x11
   10b3c:	c50b8b93          	addi	s7,s7,-944 # 21788 <__clzsi2+0xd8>
   10b40:	01c75663          	bge	a4,t3,10b4c <_vfprintf_r+0x60c>
   10b44:	00011b97          	auipc	s7,0x11
   10b48:	c48b8b93          	addi	s7,s7,-952 # 2178c <__clzsi2+0xdc>
   10b4c:	00012823          	sw	zero,16(sp)
   10b50:	02012423          	sw	zero,40(sp)
   10b54:	02012223          	sw	zero,36(sp)
   10b58:	00012c23          	sw	zero,24(sp)
   10b5c:	f7fb7b13          	andi	s6,s6,-129
   10b60:	00300c13          	li	s8,3
   10b64:	00300c93          	li	s9,3
   10b68:	00000313          	li	t1,0
   10b6c:	c00602e3          	beqz	a2,10770 <_vfprintf_r+0x230>
   10b70:	001c0c13          	addi	s8,s8,1
   10b74:	bfdff06f          	j	10770 <_vfprintf_r+0x230>
   10b78:	00812583          	lw	a1,8(sp)
   10b7c:	0a010613          	addi	a2,sp,160
   10b80:	00098513          	mv	a0,s3
   10b84:	04612c23          	sw	t1,88(sp)
   10b88:	05c12a23          	sw	t3,84(sp)
   10b8c:	04512823          	sw	t0,80(sp)
   10b90:	384090ef          	jal	ra,19f14 <__sprint_r>
   10b94:	e4051ce3          	bnez	a0,109ec <_vfprintf_r+0x4ac>
   10b98:	0a812a03          	lw	s4,168(sp)
   10b9c:	05812303          	lw	t1,88(sp)
   10ba0:	05412e03          	lw	t3,84(sp)
   10ba4:	05012283          	lw	t0,80(sp)
   10ba8:	0ac10413          	addi	s0,sp,172
   10bac:	c19ff06f          	j	107c4 <_vfprintf_r+0x284>
   10bb0:	02012783          	lw	a5,32(sp)
   10bb4:	00100693          	li	a3,1
   10bb8:	00840d93          	addi	s11,s0,8
   10bbc:	001a0713          	addi	a4,s4,1
   10bc0:	3cf6dee3          	bge	a3,a5,1179c <_vfprintf_r+0x125c>
   10bc4:	0a412c83          	lw	s9,164(sp)
   10bc8:	00100693          	li	a3,1
   10bcc:	00d42223          	sw	a3,4(s0)
   10bd0:	001c8c93          	addi	s9,s9,1
   10bd4:	01742023          	sw	s7,0(s0)
   10bd8:	0ae12423          	sw	a4,168(sp)
   10bdc:	0b912223          	sw	s9,164(sp)
   10be0:	00700693          	li	a3,7
   10be4:	0196d463          	bge	a3,s9,10bec <_vfprintf_r+0x6ac>
   10be8:	0e00106f          	j	11cc8 <_vfprintf_r+0x1788>
   10bec:	03412783          	lw	a5,52(sp)
   10bf0:	03812683          	lw	a3,56(sp)
   10bf4:	001c8c93          	addi	s9,s9,1
   10bf8:	00e78733          	add	a4,a5,a4
   10bfc:	00dda023          	sw	a3,0(s11)
   10c00:	00fda223          	sw	a5,4(s11)
   10c04:	0ae12423          	sw	a4,168(sp)
   10c08:	0b912223          	sw	s9,164(sp)
   10c0c:	00700693          	li	a3,7
   10c10:	008d8d93          	addi	s11,s11,8
   10c14:	0196d463          	bge	a3,s9,10c1c <_vfprintf_r+0x6dc>
   10c18:	0d80106f          	j	11cf0 <_vfprintf_r+0x17b0>
   10c1c:	02c12603          	lw	a2,44(sp)
   10c20:	03012683          	lw	a3,48(sp)
   10c24:	00e12c23          	sw	a4,24(sp)
   10c28:	00060513          	mv	a0,a2
   10c2c:	00068593          	mv	a1,a3
   10c30:	00000613          	li	a2,0
   10c34:	00000693          	li	a3,0
   10c38:	0280f0ef          	jal	ra,1fc60 <__eqdf2>
   10c3c:	02012783          	lw	a5,32(sp)
   10c40:	01812703          	lw	a4,24(sp)
   10c44:	fff78413          	addi	s0,a5,-1
   10c48:	3a0500e3          	beqz	a0,117e8 <_vfprintf_r+0x12a8>
   10c4c:	001b8793          	addi	a5,s7,1
   10c50:	001c8c93          	addi	s9,s9,1
   10c54:	00870733          	add	a4,a4,s0
   10c58:	00fda023          	sw	a5,0(s11)
   10c5c:	008da223          	sw	s0,4(s11)
   10c60:	0ae12423          	sw	a4,168(sp)
   10c64:	0b912223          	sw	s9,164(sp)
   10c68:	00700793          	li	a5,7
   10c6c:	008d8d93          	addi	s11,s11,8
   10c70:	3597cae3          	blt	a5,s9,117c4 <_vfprintf_r+0x1284>
   10c74:	04412683          	lw	a3,68(sp)
   10c78:	08810793          	addi	a5,sp,136
   10c7c:	001c8c93          	addi	s9,s9,1
   10c80:	00e68733          	add	a4,a3,a4
   10c84:	00fda023          	sw	a5,0(s11)
   10c88:	00dda223          	sw	a3,4(s11)
   10c8c:	0ae12423          	sw	a4,168(sp)
   10c90:	0b912223          	sw	s9,164(sp)
   10c94:	00700793          	li	a5,7
   10c98:	008d8413          	addi	s0,s11,8
   10c9c:	b997dee3          	bge	a5,s9,10838 <_vfprintf_r+0x2f8>
   10ca0:	00812583          	lw	a1,8(sp)
   10ca4:	0a010613          	addi	a2,sp,160
   10ca8:	00098513          	mv	a0,s3
   10cac:	268090ef          	jal	ra,19f14 <__sprint_r>
   10cb0:	d2051ee3          	bnez	a0,109ec <_vfprintf_r+0x4ac>
   10cb4:	0a812703          	lw	a4,168(sp)
   10cb8:	0ac10413          	addi	s0,sp,172
   10cbc:	b7dff06f          	j	10838 <_vfprintf_r+0x2f8>
   10cc0:	2007f713          	andi	a4,a5,512
   10cc4:	d4071ae3          	bnez	a4,10a18 <_vfprintf_r+0x4d8>
   10cc8:	00812403          	lw	s0,8(sp)
   10ccc:	05842503          	lw	a0,88(s0)
   10cd0:	5e1050ef          	jal	ra,16ab0 <__retarget_lock_release_recursive>
   10cd4:	00c41783          	lh	a5,12(s0)
   10cd8:	d41ff06f          	j	10a18 <_vfprintf_r+0x4d8>
   10cdc:	00098513          	mv	a0,s3
   10ce0:	031040ef          	jal	ra,15510 <__sinit>
   10ce4:	00c12783          	lw	a5,12(sp)
   10ce8:	8ddff06f          	j	105c4 <_vfprintf_r+0x84>
   10cec:	0004ce03          	lbu	t3,0(s1)
   10cf0:	020b6b13          	ori	s6,s6,32
   10cf4:	9f1ff06f          	j	106e4 <_vfprintf_r+0x1a4>
   10cf8:	01412703          	lw	a4,20(sp)
   10cfc:	04300793          	li	a5,67
   10d00:	00470a13          	addi	s4,a4,4
   10d04:	72fe0ae3          	beq	t3,a5,11c38 <_vfprintf_r+0x16f8>
   10d08:	010b7793          	andi	a5,s6,16
   10d0c:	720796e3          	bnez	a5,11c38 <_vfprintf_r+0x16f8>
   10d10:	01412783          	lw	a5,20(sp)
   10d14:	00100c13          	li	s8,1
   10d18:	00100c93          	li	s9,1
   10d1c:	0007a783          	lw	a5,0(a5)
   10d20:	0ec10b93          	addi	s7,sp,236
   10d24:	0ef10623          	sb	a5,236(sp)
   10d28:	06010ba3          	sb	zero,119(sp)
   10d2c:	01412a23          	sw	s4,20(sp)
   10d30:	00000613          	li	a2,0
   10d34:	00012823          	sw	zero,16(sp)
   10d38:	00000313          	li	t1,0
   10d3c:	02012423          	sw	zero,40(sp)
   10d40:	02012223          	sw	zero,36(sp)
   10d44:	00012c23          	sw	zero,24(sp)
   10d48:	a29ff06f          	j	10770 <_vfprintf_r+0x230>
   10d4c:	01412783          	lw	a5,20(sp)
   10d50:	06010ba3          	sb	zero,119(sp)
   10d54:	000a0313          	mv	t1,s4
   10d58:	0007ab83          	lw	s7,0(a5)
   10d5c:	00478d93          	addi	s11,a5,4
   10d60:	6a0b80e3          	beqz	s7,11c00 <_vfprintf_r+0x16c0>
   10d64:	05300713          	li	a4,83
   10d68:	00ee1463          	bne	t3,a4,10d70 <_vfprintf_r+0x830>
   10d6c:	2f80106f          	j	12064 <_vfprintf_r+0x1b24>
   10d70:	010b7793          	andi	a5,s6,16
   10d74:	00f12c23          	sw	a5,24(sp)
   10d78:	00078463          	beqz	a5,10d80 <_vfprintf_r+0x840>
   10d7c:	2e80106f          	j	12064 <_vfprintf_r+0x1b24>
   10d80:	fff00713          	li	a4,-1
   10d84:	00ea1463          	bne	s4,a4,10d8c <_vfprintf_r+0x84c>
   10d88:	6600106f          	j	123e8 <_vfprintf_r+0x1ea8>
   10d8c:	000a0613          	mv	a2,s4
   10d90:	00000593          	li	a1,0
   10d94:	000b8513          	mv	a0,s7
   10d98:	01412a23          	sw	s4,20(sp)
   10d9c:	7e5060ef          	jal	ra,17d80 <memchr>
   10da0:	00a12823          	sw	a0,16(sp)
   10da4:	01412303          	lw	t1,20(sp)
   10da8:	00051463          	bnez	a0,10db0 <_vfprintf_r+0x870>
   10dac:	2a40206f          	j	13050 <_vfprintf_r+0x2b10>
   10db0:	01012783          	lw	a5,16(sp)
   10db4:	41778cb3          	sub	s9,a5,s7
   10db8:	07714603          	lbu	a2,119(sp)
   10dbc:	fffcc893          	not	a7,s9
   10dc0:	41f8d893          	srai	a7,a7,0x1f
   10dc4:	01b12a23          	sw	s11,20(sp)
   10dc8:	02012423          	sw	zero,40(sp)
   10dcc:	02012223          	sw	zero,36(sp)
   10dd0:	00012823          	sw	zero,16(sp)
   10dd4:	011cfc33          	and	s8,s9,a7
   10dd8:	00000313          	li	t1,0
   10ddc:	07300e13          	li	t3,115
   10de0:	980608e3          	beqz	a2,10770 <_vfprintf_r+0x230>
   10de4:	d8dff06f          	j	10b70 <_vfprintf_r+0x630>
   10de8:	01412783          	lw	a5,20(sp)
   10dec:	0007a903          	lw	s2,0(a5)
   10df0:	00478793          	addi	a5,a5,4
   10df4:	380958e3          	bgez	s2,11984 <_vfprintf_r+0x1444>
   10df8:	41200933          	neg	s2,s2
   10dfc:	00f12a23          	sw	a5,20(sp)
   10e00:	0004ce03          	lbu	t3,0(s1)
   10e04:	004b6b13          	ori	s6,s6,4
   10e08:	8ddff06f          	j	106e4 <_vfprintf_r+0x1a4>
   10e0c:	02b00793          	li	a5,43
   10e10:	0004ce03          	lbu	t3,0(s1)
   10e14:	06f10ba3          	sb	a5,119(sp)
   10e18:	8cdff06f          	j	106e4 <_vfprintf_r+0x1a4>
   10e1c:	0004ce03          	lbu	t3,0(s1)
   10e20:	080b6b13          	ori	s6,s6,128
   10e24:	8c1ff06f          	j	106e4 <_vfprintf_r+0x1a4>
   10e28:	0004ce03          	lbu	t3,0(s1)
   10e2c:	02a00793          	li	a5,42
   10e30:	00148713          	addi	a4,s1,1
   10e34:	00fe1463          	bne	t3,a5,10e3c <_vfprintf_r+0x8fc>
   10e38:	2680206f          	j	130a0 <_vfprintf_r+0x2b60>
   10e3c:	fd0e0693          	addi	a3,t3,-48
   10e40:	00900793          	li	a5,9
   10e44:	00070493          	mv	s1,a4
   10e48:	00000a13          	li	s4,0
   10e4c:	00900713          	li	a4,9
   10e50:	88d7ece3          	bltu	a5,a3,106e8 <_vfprintf_r+0x1a8>
   10e54:	0004ce03          	lbu	t3,0(s1)
   10e58:	002a1793          	slli	a5,s4,0x2
   10e5c:	014787b3          	add	a5,a5,s4
   10e60:	00179793          	slli	a5,a5,0x1
   10e64:	00d78a33          	add	s4,a5,a3
   10e68:	fd0e0693          	addi	a3,t3,-48
   10e6c:	00148493          	addi	s1,s1,1
   10e70:	fed772e3          	bgeu	a4,a3,10e54 <_vfprintf_r+0x914>
   10e74:	875ff06f          	j	106e8 <_vfprintf_r+0x1a8>
   10e78:	0004ce03          	lbu	t3,0(s1)
   10e7c:	001b6b13          	ori	s6,s6,1
   10e80:	865ff06f          	j	106e4 <_vfprintf_r+0x1a4>
   10e84:	07714783          	lbu	a5,119(sp)
   10e88:	0004ce03          	lbu	t3,0(s1)
   10e8c:	84079ce3          	bnez	a5,106e4 <_vfprintf_r+0x1a4>
   10e90:	02000793          	li	a5,32
   10e94:	06f10ba3          	sb	a5,119(sp)
   10e98:	84dff06f          	j	106e4 <_vfprintf_r+0x1a4>
   10e9c:	000a0313          	mv	t1,s4
   10ea0:	010b6b13          	ori	s6,s6,16
   10ea4:	020b7793          	andi	a5,s6,32
   10ea8:	26078ae3          	beqz	a5,1191c <_vfprintf_r+0x13dc>
   10eac:	01412783          	lw	a5,20(sp)
   10eb0:	00778a13          	addi	s4,a5,7
   10eb4:	ff8a7a13          	andi	s4,s4,-8
   10eb8:	000a2d83          	lw	s11,0(s4)
   10ebc:	004a2c83          	lw	s9,4(s4)
   10ec0:	008a0793          	addi	a5,s4,8
   10ec4:	00f12a23          	sw	a5,20(sp)
   10ec8:	bffb7613          	andi	a2,s6,-1025
   10ecc:	00000793          	li	a5,0
   10ed0:	00000713          	li	a4,0
   10ed4:	06e10ba3          	sb	a4,119(sp)
   10ed8:	fff00713          	li	a4,-1
   10edc:	2ce30c63          	beq	t1,a4,111b4 <_vfprintf_r+0xc74>
   10ee0:	019de733          	or	a4,s11,s9
   10ee4:	f7f67b13          	andi	s6,a2,-129
   10ee8:	2c071463          	bnez	a4,111b0 <_vfprintf_r+0xc70>
   10eec:	32031a63          	bnez	t1,11220 <_vfprintf_r+0xce0>
   10ef0:	5c0796e3          	bnez	a5,11cbc <_vfprintf_r+0x177c>
   10ef4:	00167c93          	andi	s9,a2,1
   10ef8:	15010b93          	addi	s7,sp,336
   10efc:	300c9ae3          	bnez	s9,11a10 <_vfprintf_r+0x14d0>
   10f00:	07714603          	lbu	a2,119(sp)
   10f04:	00030c13          	mv	s8,t1
   10f08:	01935463          	bge	t1,s9,10f10 <_vfprintf_r+0x9d0>
   10f0c:	000c8c13          	mv	s8,s9
   10f10:	00012823          	sw	zero,16(sp)
   10f14:	02012423          	sw	zero,40(sp)
   10f18:	02012223          	sw	zero,36(sp)
   10f1c:	00012c23          	sw	zero,24(sp)
   10f20:	840608e3          	beqz	a2,10770 <_vfprintf_r+0x230>
   10f24:	c4dff06f          	j	10b70 <_vfprintf_r+0x630>
   10f28:	0004ce03          	lbu	t3,0(s1)
   10f2c:	06800793          	li	a5,104
   10f30:	4cfe00e3          	beq	t3,a5,11bf0 <_vfprintf_r+0x16b0>
   10f34:	040b6b13          	ori	s6,s6,64
   10f38:	facff06f          	j	106e4 <_vfprintf_r+0x1a4>
   10f3c:	000a0313          	mv	t1,s4
   10f40:	010b6613          	ori	a2,s6,16
   10f44:	02067793          	andi	a5,a2,32
   10f48:	140786e3          	beqz	a5,11894 <_vfprintf_r+0x1354>
   10f4c:	01412783          	lw	a5,20(sp)
   10f50:	00778a13          	addi	s4,a5,7
   10f54:	ff8a7a13          	andi	s4,s4,-8
   10f58:	008a0793          	addi	a5,s4,8
   10f5c:	00f12a23          	sw	a5,20(sp)
   10f60:	000a2d83          	lw	s11,0(s4)
   10f64:	004a2c83          	lw	s9,4(s4)
   10f68:	00100793          	li	a5,1
   10f6c:	f65ff06f          	j	10ed0 <_vfprintf_r+0x990>
   10f70:	0004ce03          	lbu	t3,0(s1)
   10f74:	06c00793          	li	a5,108
   10f78:	42fe04e3          	beq	t3,a5,11ba0 <_vfprintf_r+0x1660>
   10f7c:	010b6b13          	ori	s6,s6,16
   10f80:	f64ff06f          	j	106e4 <_vfprintf_r+0x1a4>
   10f84:	0004ce03          	lbu	t3,0(s1)
   10f88:	008b6b13          	ori	s6,s6,8
   10f8c:	f58ff06f          	j	106e4 <_vfprintf_r+0x1a4>
   10f90:	000a0313          	mv	t1,s4
   10f94:	010b6b13          	ori	s6,s6,16
   10f98:	020b7793          	andi	a5,s6,32
   10f9c:	120786e3          	beqz	a5,118c8 <_vfprintf_r+0x1388>
   10fa0:	01412783          	lw	a5,20(sp)
   10fa4:	00778a13          	addi	s4,a5,7
   10fa8:	ff8a7a13          	andi	s4,s4,-8
   10fac:	004a2783          	lw	a5,4(s4)
   10fb0:	000a2d83          	lw	s11,0(s4)
   10fb4:	008a0713          	addi	a4,s4,8
   10fb8:	00e12a23          	sw	a4,20(sp)
   10fbc:	00078c93          	mv	s9,a5
   10fc0:	1207cee3          	bltz	a5,118fc <_vfprintf_r+0x13bc>
   10fc4:	fff00793          	li	a5,-1
   10fc8:	000b0613          	mv	a2,s6
   10fcc:	02f30263          	beq	t1,a5,10ff0 <_vfprintf_r+0xab0>
   10fd0:	019de7b3          	or	a5,s11,s9
   10fd4:	f7fb7613          	andi	a2,s6,-129
   10fd8:	00079c63          	bnez	a5,10ff0 <_vfprintf_r+0xab0>
   10fdc:	02031063          	bnez	t1,10ffc <_vfprintf_r+0xabc>
   10fe0:	00000c93          	li	s9,0
   10fe4:	00060b13          	mv	s6,a2
   10fe8:	15010b93          	addi	s7,sp,336
   10fec:	f15ff06f          	j	10f00 <_vfprintf_r+0x9c0>
   10ff0:	520c9ce3          	bnez	s9,11d28 <_vfprintf_r+0x17e8>
   10ff4:	00900793          	li	a5,9
   10ff8:	53b7e8e3          	bltu	a5,s11,11d28 <_vfprintf_r+0x17e8>
   10ffc:	030d8d93          	addi	s11,s11,48
   11000:	15b107a3          	sb	s11,335(sp)
   11004:	00060b13          	mv	s6,a2
   11008:	00100c93          	li	s9,1
   1100c:	14f10b93          	addi	s7,sp,335
   11010:	ef1ff06f          	j	10f00 <_vfprintf_r+0x9c0>
   11014:	01412703          	lw	a4,20(sp)
   11018:	ffff87b7          	lui	a5,0xffff8
   1101c:	8307c793          	xori	a5,a5,-2000
   11020:	06f11c23          	sh	a5,120(sp)
   11024:	00470793          	addi	a5,a4,4
   11028:	00f12a23          	sw	a5,20(sp)
   1102c:	00010797          	auipc	a5,0x10
   11030:	76c78793          	addi	a5,a5,1900 # 21798 <__clzsi2+0xe8>
   11034:	02f12e23          	sw	a5,60(sp)
   11038:	00072d83          	lw	s11,0(a4)
   1103c:	000a0313          	mv	t1,s4
   11040:	00000c93          	li	s9,0
   11044:	002b6613          	ori	a2,s6,2
   11048:	00200793          	li	a5,2
   1104c:	07800e13          	li	t3,120
   11050:	e81ff06f          	j	10ed0 <_vfprintf_r+0x990>
   11054:	020b7793          	andi	a5,s6,32
   11058:	200782e3          	beqz	a5,11a5c <_vfprintf_r+0x151c>
   1105c:	01412783          	lw	a5,20(sp)
   11060:	00c12683          	lw	a3,12(sp)
   11064:	0007a783          	lw	a5,0(a5)
   11068:	41f6d713          	srai	a4,a3,0x1f
   1106c:	00d7a023          	sw	a3,0(a5)
   11070:	00e7a223          	sw	a4,4(a5)
   11074:	01412783          	lw	a5,20(sp)
   11078:	00048b93          	mv	s7,s1
   1107c:	00478793          	addi	a5,a5,4
   11080:	00f12a23          	sw	a5,20(sp)
   11084:	df8ff06f          	j	1067c <_vfprintf_r+0x13c>
   11088:	06500693          	li	a3,101
   1108c:	b3c6d2e3          	bge	a3,t3,10bb0 <_vfprintf_r+0x670>
   11090:	02c12603          	lw	a2,44(sp)
   11094:	03012683          	lw	a3,48(sp)
   11098:	00060513          	mv	a0,a2
   1109c:	00068593          	mv	a1,a3
   110a0:	00000613          	li	a2,0
   110a4:	00000693          	li	a3,0
   110a8:	3b90e0ef          	jal	ra,1fc60 <__eqdf2>
   110ac:	54051e63          	bnez	a0,11608 <_vfprintf_r+0x10c8>
   110b0:	0a412783          	lw	a5,164(sp)
   110b4:	00010697          	auipc	a3,0x10
   110b8:	71468693          	addi	a3,a3,1812 # 217c8 <__clzsi2+0x118>
   110bc:	00d42023          	sw	a3,0(s0)
   110c0:	001a0a13          	addi	s4,s4,1
   110c4:	00100693          	li	a3,1
   110c8:	00178793          	addi	a5,a5,1
   110cc:	00d42223          	sw	a3,4(s0)
   110d0:	0b412423          	sw	s4,168(sp)
   110d4:	0af12223          	sw	a5,164(sp)
   110d8:	00700693          	li	a3,7
   110dc:	00840413          	addi	s0,s0,8
   110e0:	76f6c0e3          	blt	a3,a5,12040 <_vfprintf_r+0x1b00>
   110e4:	07c12783          	lw	a5,124(sp)
   110e8:	02012703          	lw	a4,32(sp)
   110ec:	06e7dee3          	bge	a5,a4,11968 <_vfprintf_r+0x1428>
   110f0:	03812783          	lw	a5,56(sp)
   110f4:	03412683          	lw	a3,52(sp)
   110f8:	00840413          	addi	s0,s0,8
   110fc:	fef42c23          	sw	a5,-8(s0)
   11100:	0a412783          	lw	a5,164(sp)
   11104:	01468733          	add	a4,a3,s4
   11108:	fed42e23          	sw	a3,-4(s0)
   1110c:	00178793          	addi	a5,a5,1
   11110:	0ae12423          	sw	a4,168(sp)
   11114:	0af12223          	sw	a5,164(sp)
   11118:	00700693          	li	a3,7
   1111c:	2af6c8e3          	blt	a3,a5,11bcc <_vfprintf_r+0x168c>
   11120:	02012783          	lw	a5,32(sp)
   11124:	fff78c93          	addi	s9,a5,-1
   11128:	f1905863          	blez	s9,10838 <_vfprintf_r+0x2f8>
   1112c:	01000693          	li	a3,16
   11130:	0a412783          	lw	a5,164(sp)
   11134:	00011a17          	auipc	s4,0x11
   11138:	89ca0a13          	addi	s4,s4,-1892 # 219d0 <zeroes.0>
   1113c:	0196c463          	blt	a3,s9,11144 <_vfprintf_r+0xc04>
   11140:	06c0106f          	j	121ac <_vfprintf_r+0x1c6c>
   11144:	000a0693          	mv	a3,s4
   11148:	01000d93          	li	s11,16
   1114c:	00090a13          	mv	s4,s2
   11150:	00700b93          	li	s7,7
   11154:	00048913          	mv	s2,s1
   11158:	00068493          	mv	s1,a3
   1115c:	0100006f          	j	1116c <_vfprintf_r+0xc2c>
   11160:	ff0c8c93          	addi	s9,s9,-16
   11164:	019dc463          	blt	s11,s9,1116c <_vfprintf_r+0xc2c>
   11168:	0340106f          	j	1219c <_vfprintf_r+0x1c5c>
   1116c:	01070713          	addi	a4,a4,16
   11170:	00178793          	addi	a5,a5,1
   11174:	00942023          	sw	s1,0(s0)
   11178:	01b42223          	sw	s11,4(s0)
   1117c:	0ae12423          	sw	a4,168(sp)
   11180:	0af12223          	sw	a5,164(sp)
   11184:	00840413          	addi	s0,s0,8
   11188:	fcfbdce3          	bge	s7,a5,11160 <_vfprintf_r+0xc20>
   1118c:	00812583          	lw	a1,8(sp)
   11190:	0a010613          	addi	a2,sp,160
   11194:	00098513          	mv	a0,s3
   11198:	57d080ef          	jal	ra,19f14 <__sprint_r>
   1119c:	840518e3          	bnez	a0,109ec <_vfprintf_r+0x4ac>
   111a0:	0a812703          	lw	a4,168(sp)
   111a4:	0a412783          	lw	a5,164(sp)
   111a8:	0ac10413          	addi	s0,sp,172
   111ac:	fb5ff06f          	j	11160 <_vfprintf_r+0xc20>
   111b0:	000b0613          	mv	a2,s6
   111b4:	00100713          	li	a4,1
   111b8:	e2e78ce3          	beq	a5,a4,10ff0 <_vfprintf_r+0xab0>
   111bc:	00200713          	li	a4,2
   111c0:	06e78c63          	beq	a5,a4,11238 <_vfprintf_r+0xcf8>
   111c4:	15010b93          	addi	s7,sp,336
   111c8:	01dc9793          	slli	a5,s9,0x1d
   111cc:	007df713          	andi	a4,s11,7
   111d0:	003ddd93          	srli	s11,s11,0x3
   111d4:	03070713          	addi	a4,a4,48
   111d8:	01b7edb3          	or	s11,a5,s11
   111dc:	003cdc93          	srli	s9,s9,0x3
   111e0:	feeb8fa3          	sb	a4,-1(s7)
   111e4:	019de7b3          	or	a5,s11,s9
   111e8:	000b8593          	mv	a1,s7
   111ec:	fffb8b93          	addi	s7,s7,-1
   111f0:	fc079ce3          	bnez	a5,111c8 <_vfprintf_r+0xc88>
   111f4:	00167693          	andi	a3,a2,1
   111f8:	06068a63          	beqz	a3,1126c <_vfprintf_r+0xd2c>
   111fc:	03000693          	li	a3,48
   11200:	06d70663          	beq	a4,a3,1126c <_vfprintf_r+0xd2c>
   11204:	ffe58593          	addi	a1,a1,-2
   11208:	15010793          	addi	a5,sp,336
   1120c:	fedb8fa3          	sb	a3,-1(s7)
   11210:	40b78cb3          	sub	s9,a5,a1
   11214:	00060b13          	mv	s6,a2
   11218:	00058b93          	mv	s7,a1
   1121c:	ce5ff06f          	j	10f00 <_vfprintf_r+0x9c0>
   11220:	00100713          	li	a4,1
   11224:	00e79463          	bne	a5,a4,1122c <_vfprintf_r+0xcec>
   11228:	3a50106f          	j	12dcc <_vfprintf_r+0x288c>
   1122c:	00200713          	li	a4,2
   11230:	000b0613          	mv	a2,s6
   11234:	f8e798e3          	bne	a5,a4,111c4 <_vfprintf_r+0xc84>
   11238:	03c12683          	lw	a3,60(sp)
   1123c:	15010b93          	addi	s7,sp,336
   11240:	00fdf793          	andi	a5,s11,15
   11244:	00f687b3          	add	a5,a3,a5
   11248:	0007c703          	lbu	a4,0(a5)
   1124c:	004ddd93          	srli	s11,s11,0x4
   11250:	01cc9793          	slli	a5,s9,0x1c
   11254:	01b7edb3          	or	s11,a5,s11
   11258:	004cdc93          	srli	s9,s9,0x4
   1125c:	feeb8fa3          	sb	a4,-1(s7)
   11260:	019de7b3          	or	a5,s11,s9
   11264:	fffb8b93          	addi	s7,s7,-1
   11268:	fc079ce3          	bnez	a5,11240 <_vfprintf_r+0xd00>
   1126c:	15010793          	addi	a5,sp,336
   11270:	41778cb3          	sub	s9,a5,s7
   11274:	00060b13          	mv	s6,a2
   11278:	c89ff06f          	j	10f00 <_vfprintf_r+0x9c0>
   1127c:	41890db3          	sub	s11,s2,s8
   11280:	d9b05063          	blez	s11,10800 <_vfprintf_r+0x2c0>
   11284:	01000593          	li	a1,16
   11288:	000a0713          	mv	a4,s4
   1128c:	0a412603          	lw	a2,164(sp)
   11290:	00010a17          	auipc	s4,0x10
   11294:	740a0a13          	addi	s4,s4,1856 # 219d0 <zeroes.0>
   11298:	0bb5d463          	bge	a1,s11,11340 <_vfprintf_r+0xe00>
   1129c:	04912823          	sw	s1,80(sp)
   112a0:	00040793          	mv	a5,s0
   112a4:	000a0493          	mv	s1,s4
   112a8:	000d8413          	mv	s0,s11
   112ac:	00090a13          	mv	s4,s2
   112b0:	000b8d93          	mv	s11,s7
   112b4:	01000f93          	li	t6,16
   112b8:	00700293          	li	t0,7
   112bc:	00030b93          	mv	s7,t1
   112c0:	000e0913          	mv	s2,t3
   112c4:	00c0006f          	j	112d0 <_vfprintf_r+0xd90>
   112c8:	ff040413          	addi	s0,s0,-16
   112cc:	048fda63          	bge	t6,s0,11320 <_vfprintf_r+0xde0>
   112d0:	01070713          	addi	a4,a4,16
   112d4:	00160613          	addi	a2,a2,1
   112d8:	0097a023          	sw	s1,0(a5)
   112dc:	01f7a223          	sw	t6,4(a5)
   112e0:	0ae12423          	sw	a4,168(sp)
   112e4:	0ac12223          	sw	a2,164(sp)
   112e8:	00878793          	addi	a5,a5,8
   112ec:	fcc2dee3          	bge	t0,a2,112c8 <_vfprintf_r+0xd88>
   112f0:	00812583          	lw	a1,8(sp)
   112f4:	0a010613          	addi	a2,sp,160
   112f8:	00098513          	mv	a0,s3
   112fc:	419080ef          	jal	ra,19f14 <__sprint_r>
   11300:	ee051663          	bnez	a0,109ec <_vfprintf_r+0x4ac>
   11304:	01000f93          	li	t6,16
   11308:	ff040413          	addi	s0,s0,-16
   1130c:	0a812703          	lw	a4,168(sp)
   11310:	0a412603          	lw	a2,164(sp)
   11314:	0ac10793          	addi	a5,sp,172
   11318:	00700293          	li	t0,7
   1131c:	fa8fcae3          	blt	t6,s0,112d0 <_vfprintf_r+0xd90>
   11320:	00090e13          	mv	t3,s2
   11324:	000a0913          	mv	s2,s4
   11328:	00048a13          	mv	s4,s1
   1132c:	05012483          	lw	s1,80(sp)
   11330:	000b8313          	mv	t1,s7
   11334:	000d8b93          	mv	s7,s11
   11338:	00040d93          	mv	s11,s0
   1133c:	00078413          	mv	s0,a5
   11340:	00ed8733          	add	a4,s11,a4
   11344:	00160613          	addi	a2,a2,1
   11348:	01442023          	sw	s4,0(s0)
   1134c:	01b42223          	sw	s11,4(s0)
   11350:	0ae12423          	sw	a4,168(sp)
   11354:	0ac12223          	sw	a2,164(sp)
   11358:	00700593          	li	a1,7
   1135c:	7ac5c263          	blt	a1,a2,11b00 <_vfprintf_r+0x15c0>
   11360:	41930db3          	sub	s11,t1,s9
   11364:	00840413          	addi	s0,s0,8
   11368:	00070a13          	mv	s4,a4
   1136c:	c9b05e63          	blez	s11,10808 <_vfprintf_r+0x2c8>
   11370:	01000593          	li	a1,16
   11374:	000a0713          	mv	a4,s4
   11378:	0a412603          	lw	a2,164(sp)
   1137c:	00010a17          	auipc	s4,0x10
   11380:	654a0a13          	addi	s4,s4,1620 # 219d0 <zeroes.0>
   11384:	09b5dc63          	bge	a1,s11,1141c <_vfprintf_r+0xedc>
   11388:	00040793          	mv	a5,s0
   1138c:	01000f13          	li	t5,16
   11390:	000d8413          	mv	s0,s11
   11394:	00700f93          	li	t6,7
   11398:	000a0d93          	mv	s11,s4
   1139c:	00090a13          	mv	s4,s2
   113a0:	000e0913          	mv	s2,t3
   113a4:	00c0006f          	j	113b0 <_vfprintf_r+0xe70>
   113a8:	ff040413          	addi	s0,s0,-16
   113ac:	048f5e63          	bge	t5,s0,11408 <_vfprintf_r+0xec8>
   113b0:	01070713          	addi	a4,a4,16
   113b4:	00160613          	addi	a2,a2,1
   113b8:	00010697          	auipc	a3,0x10
   113bc:	61868693          	addi	a3,a3,1560 # 219d0 <zeroes.0>
   113c0:	00d7a023          	sw	a3,0(a5)
   113c4:	01e7a223          	sw	t5,4(a5)
   113c8:	0ae12423          	sw	a4,168(sp)
   113cc:	0ac12223          	sw	a2,164(sp)
   113d0:	00878793          	addi	a5,a5,8
   113d4:	fccfdae3          	bge	t6,a2,113a8 <_vfprintf_r+0xe68>
   113d8:	00812583          	lw	a1,8(sp)
   113dc:	0a010613          	addi	a2,sp,160
   113e0:	00098513          	mv	a0,s3
   113e4:	331080ef          	jal	ra,19f14 <__sprint_r>
   113e8:	e0051263          	bnez	a0,109ec <_vfprintf_r+0x4ac>
   113ec:	01000f13          	li	t5,16
   113f0:	ff040413          	addi	s0,s0,-16
   113f4:	0a812703          	lw	a4,168(sp)
   113f8:	0a412603          	lw	a2,164(sp)
   113fc:	0ac10793          	addi	a5,sp,172
   11400:	00700f93          	li	t6,7
   11404:	fa8f46e3          	blt	t5,s0,113b0 <_vfprintf_r+0xe70>
   11408:	00090e13          	mv	t3,s2
   1140c:	000a0913          	mv	s2,s4
   11410:	000d8a13          	mv	s4,s11
   11414:	00040d93          	mv	s11,s0
   11418:	00078413          	mv	s0,a5
   1141c:	00ed8733          	add	a4,s11,a4
   11420:	00160613          	addi	a2,a2,1
   11424:	01442023          	sw	s4,0(s0)
   11428:	01b42223          	sw	s11,4(s0)
   1142c:	0ae12423          	sw	a4,168(sp)
   11430:	0ac12223          	sw	a2,164(sp)
   11434:	00700593          	li	a1,7
   11438:	42c5ca63          	blt	a1,a2,1186c <_vfprintf_r+0x132c>
   1143c:	00840413          	addi	s0,s0,8
   11440:	00070a13          	mv	s4,a4
   11444:	bc4ff06f          	j	10808 <_vfprintf_r+0x2c8>
   11448:	01000513          	li	a0,16
   1144c:	0a812583          	lw	a1,168(sp)
   11450:	0a412603          	lw	a2,164(sp)
   11454:	00010a17          	auipc	s4,0x10
   11458:	58ca0a13          	addi	s4,s4,1420 # 219e0 <blanks.1>
   1145c:	0ae55063          	bge	a0,a4,114fc <_vfprintf_r+0xfbc>
   11460:	04912a23          	sw	s1,84(sp)
   11464:	00040793          	mv	a5,s0
   11468:	000a0493          	mv	s1,s4
   1146c:	01000f13          	li	t5,16
   11470:	00700393          	li	t2,7
   11474:	04512823          	sw	t0,80(sp)
   11478:	05c12c23          	sw	t3,88(sp)
   1147c:	00070413          	mv	s0,a4
   11480:	00030a13          	mv	s4,t1
   11484:	00c0006f          	j	11490 <_vfprintf_r+0xf50>
   11488:	ff040413          	addi	s0,s0,-16
   1148c:	048f5a63          	bge	t5,s0,114e0 <_vfprintf_r+0xfa0>
   11490:	01058593          	addi	a1,a1,16
   11494:	00160613          	addi	a2,a2,1
   11498:	0097a023          	sw	s1,0(a5)
   1149c:	01e7a223          	sw	t5,4(a5)
   114a0:	0ab12423          	sw	a1,168(sp)
   114a4:	0ac12223          	sw	a2,164(sp)
   114a8:	00878793          	addi	a5,a5,8
   114ac:	fcc3dee3          	bge	t2,a2,11488 <_vfprintf_r+0xf48>
   114b0:	00812583          	lw	a1,8(sp)
   114b4:	0a010613          	addi	a2,sp,160
   114b8:	00098513          	mv	a0,s3
   114bc:	259080ef          	jal	ra,19f14 <__sprint_r>
   114c0:	d2051663          	bnez	a0,109ec <_vfprintf_r+0x4ac>
   114c4:	01000f13          	li	t5,16
   114c8:	ff040413          	addi	s0,s0,-16
   114cc:	0a812583          	lw	a1,168(sp)
   114d0:	0a412603          	lw	a2,164(sp)
   114d4:	0ac10793          	addi	a5,sp,172
   114d8:	00700393          	li	t2,7
   114dc:	fa8f4ae3          	blt	t5,s0,11490 <_vfprintf_r+0xf50>
   114e0:	000a0313          	mv	t1,s4
   114e4:	05012283          	lw	t0,80(sp)
   114e8:	00048a13          	mv	s4,s1
   114ec:	05812e03          	lw	t3,88(sp)
   114f0:	05412483          	lw	s1,84(sp)
   114f4:	00040713          	mv	a4,s0
   114f8:	00078413          	mv	s0,a5
   114fc:	00b705b3          	add	a1,a4,a1
   11500:	00160613          	addi	a2,a2,1
   11504:	00e42223          	sw	a4,4(s0)
   11508:	01442023          	sw	s4,0(s0)
   1150c:	0ab12423          	sw	a1,168(sp)
   11510:	0ac12223          	sw	a2,164(sp)
   11514:	00700713          	li	a4,7
   11518:	0ec742e3          	blt	a4,a2,11dfc <_vfprintf_r+0x18bc>
   1151c:	07714603          	lbu	a2,119(sp)
   11520:	00840413          	addi	s0,s0,8
   11524:	a68ff06f          	j	1078c <_vfprintf_r+0x24c>
   11528:	00812583          	lw	a1,8(sp)
   1152c:	0a010613          	addi	a2,sp,160
   11530:	00098513          	mv	a0,s3
   11534:	04612a23          	sw	t1,84(sp)
   11538:	05c12823          	sw	t3,80(sp)
   1153c:	1d9080ef          	jal	ra,19f14 <__sprint_r>
   11540:	ca051663          	bnez	a0,109ec <_vfprintf_r+0x4ac>
   11544:	0a812a03          	lw	s4,168(sp)
   11548:	05412303          	lw	t1,84(sp)
   1154c:	05012e03          	lw	t3,80(sp)
   11550:	0ac10413          	addi	s0,sp,172
   11554:	aa4ff06f          	j	107f8 <_vfprintf_r+0x2b8>
   11558:	01000693          	li	a3,16
   1155c:	0a412783          	lw	a5,164(sp)
   11560:	00010a17          	auipc	s4,0x10
   11564:	480a0a13          	addi	s4,s4,1152 # 219e0 <blanks.1>
   11568:	0796d263          	bge	a3,s9,115cc <_vfprintf_r+0x108c>
   1156c:	00812b83          	lw	s7,8(sp)
   11570:	01000d93          	li	s11,16
   11574:	00700b13          	li	s6,7
   11578:	00c0006f          	j	11584 <_vfprintf_r+0x1044>
   1157c:	ff0c8c93          	addi	s9,s9,-16
   11580:	059dd663          	bge	s11,s9,115cc <_vfprintf_r+0x108c>
   11584:	01070713          	addi	a4,a4,16
   11588:	00178793          	addi	a5,a5,1
   1158c:	01442023          	sw	s4,0(s0)
   11590:	01b42223          	sw	s11,4(s0)
   11594:	0ae12423          	sw	a4,168(sp)
   11598:	0af12223          	sw	a5,164(sp)
   1159c:	00840413          	addi	s0,s0,8
   115a0:	fcfb5ee3          	bge	s6,a5,1157c <_vfprintf_r+0x103c>
   115a4:	0a010613          	addi	a2,sp,160
   115a8:	000b8593          	mv	a1,s7
   115ac:	00098513          	mv	a0,s3
   115b0:	165080ef          	jal	ra,19f14 <__sprint_r>
   115b4:	c2051c63          	bnez	a0,109ec <_vfprintf_r+0x4ac>
   115b8:	ff0c8c93          	addi	s9,s9,-16
   115bc:	0a812703          	lw	a4,168(sp)
   115c0:	0a412783          	lw	a5,164(sp)
   115c4:	0ac10413          	addi	s0,sp,172
   115c8:	fb9dcee3          	blt	s11,s9,11584 <_vfprintf_r+0x1044>
   115cc:	01970733          	add	a4,a4,s9
   115d0:	00178793          	addi	a5,a5,1
   115d4:	01442023          	sw	s4,0(s0)
   115d8:	01942223          	sw	s9,4(s0)
   115dc:	0ae12423          	sw	a4,168(sp)
   115e0:	0af12223          	sw	a5,164(sp)
   115e4:	00700693          	li	a3,7
   115e8:	a6f6d063          	bge	a3,a5,10848 <_vfprintf_r+0x308>
   115ec:	00812583          	lw	a1,8(sp)
   115f0:	0a010613          	addi	a2,sp,160
   115f4:	00098513          	mv	a0,s3
   115f8:	11d080ef          	jal	ra,19f14 <__sprint_r>
   115fc:	be051863          	bnez	a0,109ec <_vfprintf_r+0x4ac>
   11600:	0a812703          	lw	a4,168(sp)
   11604:	a44ff06f          	j	10848 <_vfprintf_r+0x308>
   11608:	07c12603          	lw	a2,124(sp)
   1160c:	38c05263          	blez	a2,11990 <_vfprintf_r+0x1450>
   11610:	02012783          	lw	a5,32(sp)
   11614:	01812703          	lw	a4,24(sp)
   11618:	00fb8333          	add	t1,s7,a5
   1161c:	00070c93          	mv	s9,a4
   11620:	00e7d463          	bge	a5,a4,11628 <_vfprintf_r+0x10e8>
   11624:	00078c93          	mv	s9,a5
   11628:	03905863          	blez	s9,11658 <_vfprintf_r+0x1118>
   1162c:	0a412603          	lw	a2,164(sp)
   11630:	019a0a33          	add	s4,s4,s9
   11634:	01742023          	sw	s7,0(s0)
   11638:	00160613          	addi	a2,a2,1
   1163c:	01942223          	sw	s9,4(s0)
   11640:	0b412423          	sw	s4,168(sp)
   11644:	0ac12223          	sw	a2,164(sp)
   11648:	00700593          	li	a1,7
   1164c:	00840413          	addi	s0,s0,8
   11650:	00c5d463          	bge	a1,a2,11658 <_vfprintf_r+0x1118>
   11654:	5a80106f          	j	12bfc <_vfprintf_r+0x26bc>
   11658:	fffcc613          	not	a2,s9
   1165c:	01812783          	lw	a5,24(sp)
   11660:	41f65613          	srai	a2,a2,0x1f
   11664:	00ccf6b3          	and	a3,s9,a2
   11668:	40d78cb3          	sub	s9,a5,a3
   1166c:	399040e3          	bgtz	s9,121ec <_vfprintf_r+0x1cac>
   11670:	01812783          	lw	a5,24(sp)
   11674:	400b7693          	andi	a3,s6,1024
   11678:	00fb8bb3          	add	s7,s7,a5
   1167c:	00068463          	beqz	a3,11684 <_vfprintf_r+0x1144>
   11680:	2d80106f          	j	12958 <_vfprintf_r+0x2418>
   11684:	07c12683          	lw	a3,124(sp)
   11688:	02012783          	lw	a5,32(sp)
   1168c:	00f6c663          	blt	a3,a5,11698 <_vfprintf_r+0x1158>
   11690:	001b7613          	andi	a2,s6,1
   11694:	4c0602e3          	beqz	a2,12358 <_vfprintf_r+0x1e18>
   11698:	03812603          	lw	a2,56(sp)
   1169c:	03412783          	lw	a5,52(sp)
   116a0:	00700593          	li	a1,7
   116a4:	00c42023          	sw	a2,0(s0)
   116a8:	0a412603          	lw	a2,164(sp)
   116ac:	01478733          	add	a4,a5,s4
   116b0:	00f42223          	sw	a5,4(s0)
   116b4:	00160613          	addi	a2,a2,1
   116b8:	0ae12423          	sw	a4,168(sp)
   116bc:	0ac12223          	sw	a2,164(sp)
   116c0:	00840413          	addi	s0,s0,8
   116c4:	00c5d463          	bge	a1,a2,116cc <_vfprintf_r+0x118c>
   116c8:	56c0106f          	j	12c34 <_vfprintf_r+0x26f4>
   116cc:	02012783          	lw	a5,32(sp)
   116d0:	41730cb3          	sub	s9,t1,s7
   116d4:	40d786b3          	sub	a3,a5,a3
   116d8:	4596c4e3          	blt	a3,s9,12320 <_vfprintf_r+0x1de0>
   116dc:	03905863          	blez	s9,1170c <_vfprintf_r+0x11cc>
   116e0:	0a412783          	lw	a5,164(sp)
   116e4:	01970733          	add	a4,a4,s9
   116e8:	01742023          	sw	s7,0(s0)
   116ec:	00178793          	addi	a5,a5,1
   116f0:	01942223          	sw	s9,4(s0)
   116f4:	0ae12423          	sw	a4,168(sp)
   116f8:	0af12223          	sw	a5,164(sp)
   116fc:	00700613          	li	a2,7
   11700:	00840413          	addi	s0,s0,8
   11704:	00f65463          	bge	a2,a5,1170c <_vfprintf_r+0x11cc>
   11708:	59c0106f          	j	12ca4 <_vfprintf_r+0x2764>
   1170c:	fffcc793          	not	a5,s9
   11710:	41f7d793          	srai	a5,a5,0x1f
   11714:	00fcfcb3          	and	s9,s9,a5
   11718:	41968cb3          	sub	s9,a3,s9
   1171c:	91905e63          	blez	s9,10838 <_vfprintf_r+0x2f8>
   11720:	01000693          	li	a3,16
   11724:	0a412783          	lw	a5,164(sp)
   11728:	00010a17          	auipc	s4,0x10
   1172c:	2a8a0a13          	addi	s4,s4,680 # 219d0 <zeroes.0>
   11730:	2796dee3          	bge	a3,s9,121ac <_vfprintf_r+0x1c6c>
   11734:	000a0693          	mv	a3,s4
   11738:	01000d93          	li	s11,16
   1173c:	00090a13          	mv	s4,s2
   11740:	00700b93          	li	s7,7
   11744:	00048913          	mv	s2,s1
   11748:	00068493          	mv	s1,a3
   1174c:	00c0006f          	j	11758 <_vfprintf_r+0x1218>
   11750:	ff0c8c93          	addi	s9,s9,-16
   11754:	259dd4e3          	bge	s11,s9,1219c <_vfprintf_r+0x1c5c>
   11758:	01070713          	addi	a4,a4,16
   1175c:	00178793          	addi	a5,a5,1
   11760:	00942023          	sw	s1,0(s0)
   11764:	01b42223          	sw	s11,4(s0)
   11768:	0ae12423          	sw	a4,168(sp)
   1176c:	0af12223          	sw	a5,164(sp)
   11770:	00840413          	addi	s0,s0,8
   11774:	fcfbdee3          	bge	s7,a5,11750 <_vfprintf_r+0x1210>
   11778:	00812583          	lw	a1,8(sp)
   1177c:	0a010613          	addi	a2,sp,160
   11780:	00098513          	mv	a0,s3
   11784:	790080ef          	jal	ra,19f14 <__sprint_r>
   11788:	a6051263          	bnez	a0,109ec <_vfprintf_r+0x4ac>
   1178c:	0a812703          	lw	a4,168(sp)
   11790:	0a412783          	lw	a5,164(sp)
   11794:	0ac10413          	addi	s0,sp,172
   11798:	fb9ff06f          	j	11750 <_vfprintf_r+0x1210>
   1179c:	001b7613          	andi	a2,s6,1
   117a0:	c2061263          	bnez	a2,10bc4 <_vfprintf_r+0x684>
   117a4:	0a412c83          	lw	s9,164(sp)
   117a8:	01742023          	sw	s7,0(s0)
   117ac:	00d42223          	sw	a3,4(s0)
   117b0:	001c8c93          	addi	s9,s9,1
   117b4:	0ae12423          	sw	a4,168(sp)
   117b8:	0b912223          	sw	s9,164(sp)
   117bc:	00700793          	li	a5,7
   117c0:	cb97da63          	bge	a5,s9,10c74 <_vfprintf_r+0x734>
   117c4:	00812583          	lw	a1,8(sp)
   117c8:	0a010613          	addi	a2,sp,160
   117cc:	00098513          	mv	a0,s3
   117d0:	744080ef          	jal	ra,19f14 <__sprint_r>
   117d4:	a0051c63          	bnez	a0,109ec <_vfprintf_r+0x4ac>
   117d8:	0a812703          	lw	a4,168(sp)
   117dc:	0a412c83          	lw	s9,164(sp)
   117e0:	0ac10d93          	addi	s11,sp,172
   117e4:	c90ff06f          	j	10c74 <_vfprintf_r+0x734>
   117e8:	02012683          	lw	a3,32(sp)
   117ec:	00100793          	li	a5,1
   117f0:	c8d7d263          	bge	a5,a3,10c74 <_vfprintf_r+0x734>
   117f4:	01100793          	li	a5,17
   117f8:	00010a17          	auipc	s4,0x10
   117fc:	1d8a0a13          	addi	s4,s4,472 # 219d0 <zeroes.0>
   11800:	1cd7dee3          	bge	a5,a3,121dc <_vfprintf_r+0x1c9c>
   11804:	000a0693          	mv	a3,s4
   11808:	01000793          	li	a5,16
   1180c:	00040a13          	mv	s4,s0
   11810:	00700b93          	li	s7,7
   11814:	00068413          	mv	s0,a3
   11818:	00c0006f          	j	11824 <_vfprintf_r+0x12e4>
   1181c:	ff0a0a13          	addi	s4,s4,-16
   11820:	1b47d8e3          	bge	a5,s4,121d0 <_vfprintf_r+0x1c90>
   11824:	01070713          	addi	a4,a4,16
   11828:	001c8c93          	addi	s9,s9,1
   1182c:	008da023          	sw	s0,0(s11)
   11830:	00fda223          	sw	a5,4(s11)
   11834:	0ae12423          	sw	a4,168(sp)
   11838:	0b912223          	sw	s9,164(sp)
   1183c:	008d8d93          	addi	s11,s11,8
   11840:	fd9bdee3          	bge	s7,s9,1181c <_vfprintf_r+0x12dc>
   11844:	00812583          	lw	a1,8(sp)
   11848:	0a010613          	addi	a2,sp,160
   1184c:	00098513          	mv	a0,s3
   11850:	6c4080ef          	jal	ra,19f14 <__sprint_r>
   11854:	98051c63          	bnez	a0,109ec <_vfprintf_r+0x4ac>
   11858:	0a812703          	lw	a4,168(sp)
   1185c:	0a412c83          	lw	s9,164(sp)
   11860:	0ac10d93          	addi	s11,sp,172
   11864:	01000793          	li	a5,16
   11868:	fb5ff06f          	j	1181c <_vfprintf_r+0x12dc>
   1186c:	00812583          	lw	a1,8(sp)
   11870:	0a010613          	addi	a2,sp,160
   11874:	00098513          	mv	a0,s3
   11878:	05c12823          	sw	t3,80(sp)
   1187c:	698080ef          	jal	ra,19f14 <__sprint_r>
   11880:	96051663          	bnez	a0,109ec <_vfprintf_r+0x4ac>
   11884:	0a812a03          	lw	s4,168(sp)
   11888:	05012e03          	lw	t3,80(sp)
   1188c:	0ac10413          	addi	s0,sp,172
   11890:	f79fe06f          	j	10808 <_vfprintf_r+0x2c8>
   11894:	01412703          	lw	a4,20(sp)
   11898:	01067793          	andi	a5,a2,16
   1189c:	00072d83          	lw	s11,0(a4)
   118a0:	00470713          	addi	a4,a4,4
   118a4:	00e12a23          	sw	a4,20(sp)
   118a8:	18079263          	bnez	a5,11a2c <_vfprintf_r+0x14ec>
   118ac:	04067793          	andi	a5,a2,64
   118b0:	16078863          	beqz	a5,11a20 <_vfprintf_r+0x14e0>
   118b4:	010d9d93          	slli	s11,s11,0x10
   118b8:	010ddd93          	srli	s11,s11,0x10
   118bc:	00000c93          	li	s9,0
   118c0:	00100793          	li	a5,1
   118c4:	e0cff06f          	j	10ed0 <_vfprintf_r+0x990>
   118c8:	01412703          	lw	a4,20(sp)
   118cc:	010b7793          	andi	a5,s6,16
   118d0:	00072d83          	lw	s11,0(a4)
   118d4:	00470713          	addi	a4,a4,4
   118d8:	00e12a23          	sw	a4,20(sp)
   118dc:	16079a63          	bnez	a5,11a50 <_vfprintf_r+0x1510>
   118e0:	040b7793          	andi	a5,s6,64
   118e4:	16078263          	beqz	a5,11a48 <_vfprintf_r+0x1508>
   118e8:	010d9d93          	slli	s11,s11,0x10
   118ec:	410ddd93          	srai	s11,s11,0x10
   118f0:	41fddc93          	srai	s9,s11,0x1f
   118f4:	000c8793          	mv	a5,s9
   118f8:	ec07d663          	bgez	a5,10fc4 <_vfprintf_r+0xa84>
   118fc:	01b037b3          	snez	a5,s11
   11900:	419000b3          	neg	ra,s9
   11904:	40f08cb3          	sub	s9,ra,a5
   11908:	41b00db3          	neg	s11,s11
   1190c:	000b0613          	mv	a2,s6
   11910:	02d00713          	li	a4,45
   11914:	00100793          	li	a5,1
   11918:	dbcff06f          	j	10ed4 <_vfprintf_r+0x994>
   1191c:	01412703          	lw	a4,20(sp)
   11920:	010b7793          	andi	a5,s6,16
   11924:	00072d83          	lw	s11,0(a4)
   11928:	00470713          	addi	a4,a4,4
   1192c:	00e12a23          	sw	a4,20(sp)
   11930:	10079863          	bnez	a5,11a40 <_vfprintf_r+0x1500>
   11934:	040b7793          	andi	a5,s6,64
   11938:	10078063          	beqz	a5,11a38 <_vfprintf_r+0x14f8>
   1193c:	010d9d93          	slli	s11,s11,0x10
   11940:	010ddd93          	srli	s11,s11,0x10
   11944:	00000c93          	li	s9,0
   11948:	d80ff06f          	j	10ec8 <_vfprintf_r+0x988>
   1194c:	00812403          	lw	s0,8(sp)
   11950:	00f12623          	sw	a5,12(sp)
   11954:	05842503          	lw	a0,88(s0)
   11958:	140050ef          	jal	ra,16a98 <__retarget_lock_acquire_recursive>
   1195c:	00c41703          	lh	a4,12(s0)
   11960:	00c12783          	lw	a5,12(sp)
   11964:	c81fe06f          	j	105e4 <_vfprintf_r+0xa4>
   11968:	001b7793          	andi	a5,s6,1
   1196c:	000a0713          	mv	a4,s4
   11970:	00079463          	bnez	a5,11978 <_vfprintf_r+0x1438>
   11974:	ec5fe06f          	j	10838 <_vfprintf_r+0x2f8>
   11978:	f78ff06f          	j	110f0 <_vfprintf_r+0xbb0>
   1197c:	000a0313          	mv	t1,s4
   11980:	e18ff06f          	j	10f98 <_vfprintf_r+0xa58>
   11984:	0004ce03          	lbu	t3,0(s1)
   11988:	00f12a23          	sw	a5,20(sp)
   1198c:	d59fe06f          	j	106e4 <_vfprintf_r+0x1a4>
   11990:	0a412683          	lw	a3,164(sp)
   11994:	00010597          	auipc	a1,0x10
   11998:	e3458593          	addi	a1,a1,-460 # 217c8 <__clzsi2+0x118>
   1199c:	00b42023          	sw	a1,0(s0)
   119a0:	001a0713          	addi	a4,s4,1
   119a4:	00100593          	li	a1,1
   119a8:	00168693          	addi	a3,a3,1
   119ac:	00b42223          	sw	a1,4(s0)
   119b0:	0ae12423          	sw	a4,168(sp)
   119b4:	0ad12223          	sw	a3,164(sp)
   119b8:	00700593          	li	a1,7
   119bc:	00840413          	addi	s0,s0,8
   119c0:	16d5c4e3          	blt	a1,a3,12328 <_vfprintf_r+0x1de8>
   119c4:	0a061ee3          	bnez	a2,12280 <_vfprintf_r+0x1d40>
   119c8:	02012783          	lw	a5,32(sp)
   119cc:	001b7693          	andi	a3,s6,1
   119d0:	00f6e6b3          	or	a3,a3,a5
   119d4:	00069463          	bnez	a3,119dc <_vfprintf_r+0x149c>
   119d8:	e61fe06f          	j	10838 <_vfprintf_r+0x2f8>
   119dc:	03812683          	lw	a3,56(sp)
   119e0:	03412783          	lw	a5,52(sp)
   119e4:	00700613          	li	a2,7
   119e8:	00d42023          	sw	a3,0(s0)
   119ec:	0a412683          	lw	a3,164(sp)
   119f0:	00e78733          	add	a4,a5,a4
   119f4:	00f42223          	sw	a5,4(s0)
   119f8:	00168693          	addi	a3,a3,1
   119fc:	0ae12423          	sw	a4,168(sp)
   11a00:	0ad12223          	sw	a3,164(sp)
   11a04:	1ed64ae3          	blt	a2,a3,123f8 <_vfprintf_r+0x1eb8>
   11a08:	00840413          	addi	s0,s0,8
   11a0c:	0a90006f          	j	122b4 <_vfprintf_r+0x1d74>
   11a10:	03000793          	li	a5,48
   11a14:	14f107a3          	sb	a5,335(sp)
   11a18:	14f10b93          	addi	s7,sp,335
   11a1c:	ce4ff06f          	j	10f00 <_vfprintf_r+0x9c0>
   11a20:	20067793          	andi	a5,a2,512
   11a24:	00078463          	beqz	a5,11a2c <_vfprintf_r+0x14ec>
   11a28:	0ffdfd93          	zext.b	s11,s11
   11a2c:	00000c93          	li	s9,0
   11a30:	00100793          	li	a5,1
   11a34:	c9cff06f          	j	10ed0 <_vfprintf_r+0x990>
   11a38:	200b7793          	andi	a5,s6,512
   11a3c:	160794e3          	bnez	a5,123a4 <_vfprintf_r+0x1e64>
   11a40:	00000c93          	li	s9,0
   11a44:	c84ff06f          	j	10ec8 <_vfprintf_r+0x988>
   11a48:	200b7793          	andi	a5,s6,512
   11a4c:	120798e3          	bnez	a5,1237c <_vfprintf_r+0x1e3c>
   11a50:	41fddc93          	srai	s9,s11,0x1f
   11a54:	000c8793          	mv	a5,s9
   11a58:	d68ff06f          	j	10fc0 <_vfprintf_r+0xa80>
   11a5c:	010b7793          	andi	a5,s6,16
   11a60:	74079e63          	bnez	a5,121bc <_vfprintf_r+0x1c7c>
   11a64:	040b7793          	andi	a5,s6,64
   11a68:	120794e3          	bnez	a5,12390 <_vfprintf_r+0x1e50>
   11a6c:	200b7813          	andi	a6,s6,512
   11a70:	74080663          	beqz	a6,121bc <_vfprintf_r+0x1c7c>
   11a74:	01412783          	lw	a5,20(sp)
   11a78:	00c12703          	lw	a4,12(sp)
   11a7c:	0007a783          	lw	a5,0(a5)
   11a80:	00e78023          	sb	a4,0(a5)
   11a84:	df0ff06f          	j	11074 <_vfprintf_r+0xb34>
   11a88:	01412783          	lw	a5,20(sp)
   11a8c:	01412c23          	sw	s4,24(sp)
   11a90:	06010513          	addi	a0,sp,96
   11a94:	0007a703          	lw	a4,0(a5)
   11a98:	00478a13          	addi	s4,a5,4
   11a9c:	01c12823          	sw	t3,16(sp)
   11aa0:	00072683          	lw	a3,0(a4)
   11aa4:	01412a23          	sw	s4,20(sp)
   11aa8:	06d12023          	sw	a3,96(sp)
   11aac:	00472683          	lw	a3,4(a4)
   11ab0:	06d12223          	sw	a3,100(sp)
   11ab4:	00872683          	lw	a3,8(a4)
   11ab8:	06d12423          	sw	a3,104(sp)
   11abc:	00c72703          	lw	a4,12(a4)
   11ac0:	06e12623          	sw	a4,108(sp)
   11ac4:	7700f0ef          	jal	ra,21234 <__trunctfdf2>
   11ac8:	01012e03          	lw	t3,16(sp)
   11acc:	01812303          	lw	t1,24(sp)
   11ad0:	02a12623          	sw	a0,44(sp)
   11ad4:	02b12823          	sw	a1,48(sp)
   11ad8:	fc1fe06f          	j	10a98 <_vfprintf_r+0x558>
   11adc:	04012783          	lw	a5,64(sp)
   11ae0:	0004ce03          	lbu	t3,0(s1)
   11ae4:	00079463          	bnez	a5,11aec <_vfprintf_r+0x15ac>
   11ae8:	bfdfe06f          	j	106e4 <_vfprintf_r+0x1a4>
   11aec:	0007c783          	lbu	a5,0(a5)
   11af0:	00079463          	bnez	a5,11af8 <_vfprintf_r+0x15b8>
   11af4:	bf1fe06f          	j	106e4 <_vfprintf_r+0x1a4>
   11af8:	400b6b13          	ori	s6,s6,1024
   11afc:	be9fe06f          	j	106e4 <_vfprintf_r+0x1a4>
   11b00:	00812583          	lw	a1,8(sp)
   11b04:	0a010613          	addi	a2,sp,160
   11b08:	00098513          	mv	a0,s3
   11b0c:	04612a23          	sw	t1,84(sp)
   11b10:	05c12823          	sw	t3,80(sp)
   11b14:	400080ef          	jal	ra,19f14 <__sprint_r>
   11b18:	00050463          	beqz	a0,11b20 <_vfprintf_r+0x15e0>
   11b1c:	ed1fe06f          	j	109ec <_vfprintf_r+0x4ac>
   11b20:	0a812a03          	lw	s4,168(sp)
   11b24:	05412303          	lw	t1,84(sp)
   11b28:	05012e03          	lw	t3,80(sp)
   11b2c:	0ac10413          	addi	s0,sp,172
   11b30:	cd1fe06f          	j	10800 <_vfprintf_r+0x2c0>
   11b34:	000a0313          	mv	t1,s4
   11b38:	000b0613          	mv	a2,s6
   11b3c:	c08ff06f          	j	10f44 <_vfprintf_r+0xa04>
   11b40:	00010797          	auipc	a5,0x10
   11b44:	c6c78793          	addi	a5,a5,-916 # 217ac <__clzsi2+0xfc>
   11b48:	000a0313          	mv	t1,s4
   11b4c:	02f12e23          	sw	a5,60(sp)
   11b50:	020b7793          	andi	a5,s6,32
   11b54:	12078c63          	beqz	a5,11c8c <_vfprintf_r+0x174c>
   11b58:	01412783          	lw	a5,20(sp)
   11b5c:	00778a13          	addi	s4,a5,7
   11b60:	ff8a7a13          	andi	s4,s4,-8
   11b64:	000a2d83          	lw	s11,0(s4)
   11b68:	004a2c83          	lw	s9,4(s4)
   11b6c:	008a0793          	addi	a5,s4,8
   11b70:	00f12a23          	sw	a5,20(sp)
   11b74:	001b7793          	andi	a5,s6,1
   11b78:	00078e63          	beqz	a5,11b94 <_vfprintf_r+0x1654>
   11b7c:	019de7b3          	or	a5,s11,s9
   11b80:	00078a63          	beqz	a5,11b94 <_vfprintf_r+0x1654>
   11b84:	03000793          	li	a5,48
   11b88:	06f10c23          	sb	a5,120(sp)
   11b8c:	07c10ca3          	sb	t3,121(sp)
   11b90:	002b6b13          	ori	s6,s6,2
   11b94:	bffb7613          	andi	a2,s6,-1025
   11b98:	00200793          	li	a5,2
   11b9c:	b34ff06f          	j	10ed0 <_vfprintf_r+0x990>
   11ba0:	0014ce03          	lbu	t3,1(s1)
   11ba4:	020b6b13          	ori	s6,s6,32
   11ba8:	00148493          	addi	s1,s1,1
   11bac:	b39fe06f          	j	106e4 <_vfprintf_r+0x1a4>
   11bb0:	00010797          	auipc	a5,0x10
   11bb4:	be878793          	addi	a5,a5,-1048 # 21798 <__clzsi2+0xe8>
   11bb8:	000a0313          	mv	t1,s4
   11bbc:	02f12e23          	sw	a5,60(sp)
   11bc0:	f91ff06f          	j	11b50 <_vfprintf_r+0x1610>
   11bc4:	000a0313          	mv	t1,s4
   11bc8:	adcff06f          	j	10ea4 <_vfprintf_r+0x964>
   11bcc:	00812583          	lw	a1,8(sp)
   11bd0:	0a010613          	addi	a2,sp,160
   11bd4:	00098513          	mv	a0,s3
   11bd8:	33c080ef          	jal	ra,19f14 <__sprint_r>
   11bdc:	00050463          	beqz	a0,11be4 <_vfprintf_r+0x16a4>
   11be0:	e0dfe06f          	j	109ec <_vfprintf_r+0x4ac>
   11be4:	0a812703          	lw	a4,168(sp)
   11be8:	0ac10413          	addi	s0,sp,172
   11bec:	d34ff06f          	j	11120 <_vfprintf_r+0xbe0>
   11bf0:	0014ce03          	lbu	t3,1(s1)
   11bf4:	200b6b13          	ori	s6,s6,512
   11bf8:	00148493          	addi	s1,s1,1
   11bfc:	ae9fe06f          	j	106e4 <_vfprintf_r+0x1a4>
   11c00:	00600793          	li	a5,6
   11c04:	000a0c13          	mv	s8,s4
   11c08:	7547e463          	bltu	a5,s4,12350 <_vfprintf_r+0x1e10>
   11c0c:	01b12a23          	sw	s11,20(sp)
   11c10:	00012823          	sw	zero,16(sp)
   11c14:	000c0c93          	mv	s9,s8
   11c18:	00000613          	li	a2,0
   11c1c:	00000313          	li	t1,0
   11c20:	02012423          	sw	zero,40(sp)
   11c24:	02012223          	sw	zero,36(sp)
   11c28:	00012c23          	sw	zero,24(sp)
   11c2c:	00010b97          	auipc	s7,0x10
   11c30:	b94b8b93          	addi	s7,s7,-1132 # 217c0 <__clzsi2+0x110>
   11c34:	b3dfe06f          	j	10770 <_vfprintf_r+0x230>
   11c38:	00800613          	li	a2,8
   11c3c:	00000593          	li	a1,0
   11c40:	09810513          	addi	a0,sp,152
   11c44:	01c12823          	sw	t3,16(sp)
   11c48:	f90fe0ef          	jal	ra,103d8 <memset>
   11c4c:	01412783          	lw	a5,20(sp)
   11c50:	0ec10b93          	addi	s7,sp,236
   11c54:	09810693          	addi	a3,sp,152
   11c58:	0007a603          	lw	a2,0(a5)
   11c5c:	000b8593          	mv	a1,s7
   11c60:	00098513          	mv	a0,s3
   11c64:	5e4010ef          	jal	ra,13248 <_wcrtomb_r>
   11c68:	fff00713          	li	a4,-1
   11c6c:	01012e03          	lw	t3,16(sp)
   11c70:	00050c93          	mv	s9,a0
   11c74:	00e51463          	bne	a0,a4,11c7c <_vfprintf_r+0x173c>
   11c78:	2140106f          	j	12e8c <_vfprintf_r+0x294c>
   11c7c:	fff54893          	not	a7,a0
   11c80:	41f8d893          	srai	a7,a7,0x1f
   11c84:	01157c33          	and	s8,a0,a7
   11c88:	8a0ff06f          	j	10d28 <_vfprintf_r+0x7e8>
   11c8c:	01412703          	lw	a4,20(sp)
   11c90:	010b7793          	andi	a5,s6,16
   11c94:	00072d83          	lw	s11,0(a4)
   11c98:	00470713          	addi	a4,a4,4
   11c9c:	00e12a23          	sw	a4,20(sp)
   11ca0:	08079063          	bnez	a5,11d20 <_vfprintf_r+0x17e0>
   11ca4:	040b7793          	andi	a5,s6,64
   11ca8:	06078863          	beqz	a5,11d18 <_vfprintf_r+0x17d8>
   11cac:	010d9d93          	slli	s11,s11,0x10
   11cb0:	010ddd93          	srli	s11,s11,0x10
   11cb4:	00000c93          	li	s9,0
   11cb8:	ebdff06f          	j	11b74 <_vfprintf_r+0x1634>
   11cbc:	00000c93          	li	s9,0
   11cc0:	15010b93          	addi	s7,sp,336
   11cc4:	a3cff06f          	j	10f00 <_vfprintf_r+0x9c0>
   11cc8:	00812583          	lw	a1,8(sp)
   11ccc:	0a010613          	addi	a2,sp,160
   11cd0:	00098513          	mv	a0,s3
   11cd4:	240080ef          	jal	ra,19f14 <__sprint_r>
   11cd8:	00050463          	beqz	a0,11ce0 <_vfprintf_r+0x17a0>
   11cdc:	d11fe06f          	j	109ec <_vfprintf_r+0x4ac>
   11ce0:	0a812703          	lw	a4,168(sp)
   11ce4:	0a412c83          	lw	s9,164(sp)
   11ce8:	0ac10d93          	addi	s11,sp,172
   11cec:	f01fe06f          	j	10bec <_vfprintf_r+0x6ac>
   11cf0:	00812583          	lw	a1,8(sp)
   11cf4:	0a010613          	addi	a2,sp,160
   11cf8:	00098513          	mv	a0,s3
   11cfc:	218080ef          	jal	ra,19f14 <__sprint_r>
   11d00:	00050463          	beqz	a0,11d08 <_vfprintf_r+0x17c8>
   11d04:	ce9fe06f          	j	109ec <_vfprintf_r+0x4ac>
   11d08:	0a812703          	lw	a4,168(sp)
   11d0c:	0a412c83          	lw	s9,164(sp)
   11d10:	0ac10d93          	addi	s11,sp,172
   11d14:	f09fe06f          	j	10c1c <_vfprintf_r+0x6dc>
   11d18:	200b7793          	andi	a5,s6,512
   11d1c:	64079a63          	bnez	a5,12370 <_vfprintf_r+0x1e30>
   11d20:	00000c93          	li	s9,0
   11d24:	e51ff06f          	j	11b74 <_vfprintf_r+0x1634>
   11d28:	00000793          	li	a5,0
   11d2c:	15010b93          	addi	s7,sp,336
   11d30:	00912823          	sw	s1,16(sp)
   11d34:	00078493          	mv	s1,a5
   11d38:	00098793          	mv	a5,s3
   11d3c:	04012b03          	lw	s6,64(sp)
   11d40:	00040993          	mv	s3,s0
   11d44:	40067c13          	andi	s8,a2,1024
   11d48:	000b8413          	mv	s0,s7
   11d4c:	0ff00a13          	li	s4,255
   11d50:	01c12c23          	sw	t3,24(sp)
   11d54:	02c12023          	sw	a2,32(sp)
   11d58:	02612223          	sw	t1,36(sp)
   11d5c:	00078b93          	mv	s7,a5
   11d60:	0240006f          	j	11d84 <_vfprintf_r+0x1844>
   11d64:	00a00613          	li	a2,10
   11d68:	00000693          	li	a3,0
   11d6c:	000d8513          	mv	a0,s11
   11d70:	000c8593          	mv	a1,s9
   11d74:	1540c0ef          	jal	ra,1dec8 <__udivdi3>
   11d78:	6a0c88e3          	beqz	s9,12c28 <_vfprintf_r+0x26e8>
   11d7c:	00050d93          	mv	s11,a0
   11d80:	00058c93          	mv	s9,a1
   11d84:	00a00613          	li	a2,10
   11d88:	00000693          	li	a3,0
   11d8c:	000d8513          	mv	a0,s11
   11d90:	000c8593          	mv	a1,s9
   11d94:	78c0c0ef          	jal	ra,1e520 <__umoddi3>
   11d98:	03050513          	addi	a0,a0,48
   11d9c:	fea40fa3          	sb	a0,-1(s0)
   11da0:	00148493          	addi	s1,s1,1
   11da4:	fff40413          	addi	s0,s0,-1
   11da8:	fa0c0ee3          	beqz	s8,11d64 <_vfprintf_r+0x1824>
   11dac:	000b4703          	lbu	a4,0(s6)
   11db0:	fae49ae3          	bne	s1,a4,11d64 <_vfprintf_r+0x1824>
   11db4:	fb4488e3          	beq	s1,s4,11d64 <_vfprintf_r+0x1824>
   11db8:	360c90e3          	bnez	s9,12918 <_vfprintf_r+0x23d8>
   11dbc:	00900713          	li	a4,9
   11dc0:	35b76ce3          	bltu	a4,s11,12918 <_vfprintf_r+0x23d8>
   11dc4:	02012603          	lw	a2,32(sp)
   11dc8:	00040793          	mv	a5,s0
   11dcc:	00098413          	mv	s0,s3
   11dd0:	000b8993          	mv	s3,s7
   11dd4:	00078b93          	mv	s7,a5
   11dd8:	15010793          	addi	a5,sp,336
   11ddc:	05612023          	sw	s6,64(sp)
   11de0:	02912023          	sw	s1,32(sp)
   11de4:	01812e03          	lw	t3,24(sp)
   11de8:	02412303          	lw	t1,36(sp)
   11dec:	01012483          	lw	s1,16(sp)
   11df0:	41778cb3          	sub	s9,a5,s7
   11df4:	00060b13          	mv	s6,a2
   11df8:	908ff06f          	j	10f00 <_vfprintf_r+0x9c0>
   11dfc:	00812583          	lw	a1,8(sp)
   11e00:	0a010613          	addi	a2,sp,160
   11e04:	00098513          	mv	a0,s3
   11e08:	04612c23          	sw	t1,88(sp)
   11e0c:	05c12a23          	sw	t3,84(sp)
   11e10:	04512823          	sw	t0,80(sp)
   11e14:	100080ef          	jal	ra,19f14 <__sprint_r>
   11e18:	00050463          	beqz	a0,11e20 <_vfprintf_r+0x18e0>
   11e1c:	bd1fe06f          	j	109ec <_vfprintf_r+0x4ac>
   11e20:	07714603          	lbu	a2,119(sp)
   11e24:	05812303          	lw	t1,88(sp)
   11e28:	05412e03          	lw	t3,84(sp)
   11e2c:	05012283          	lw	t0,80(sp)
   11e30:	0ac10413          	addi	s0,sp,172
   11e34:	959fe06f          	j	1078c <_vfprintf_r+0x24c>
   11e38:	02c12f03          	lw	t5,44(sp)
   11e3c:	03012703          	lw	a4,48(sp)
   11e40:	00612c23          	sw	t1,24(sp)
   11e44:	000f0613          	mv	a2,t5
   11e48:	000f0513          	mv	a0,t5
   11e4c:	00070693          	mv	a3,a4
   11e50:	00070593          	mv	a1,a4
   11e54:	01c12823          	sw	t3,16(sp)
   11e58:	1880f0ef          	jal	ra,20fe0 <__unorddf2>
   11e5c:	01012e03          	lw	t3,16(sp)
   11e60:	01812303          	lw	t1,24(sp)
   11e64:	00050463          	beqz	a0,11e6c <_vfprintf_r+0x192c>
   11e68:	1bc0106f          	j	13024 <_vfprintf_r+0x2ae4>
   11e6c:	06100713          	li	a4,97
   11e70:	04ee0663          	beq	t3,a4,11ebc <_vfprintf_r+0x197c>
   11e74:	04100713          	li	a4,65
   11e78:	05800793          	li	a5,88
   11e7c:	04ee0263          	beq	t3,a4,11ec0 <_vfprintf_r+0x1980>
   11e80:	fff00713          	li	a4,-1
   11e84:	00e31463          	bne	t1,a4,11e8c <_vfprintf_r+0x194c>
   11e88:	0900106f          	j	12f18 <_vfprintf_r+0x29d8>
   11e8c:	fdfe7713          	andi	a4,t3,-33
   11e90:	04700693          	li	a3,71
   11e94:	00d71463          	bne	a4,a3,11e9c <_vfprintf_r+0x195c>
   11e98:	78d0006f          	j	12e24 <_vfprintf_r+0x28e4>
   11e9c:	03012d83          	lw	s11,48(sp)
   11ea0:	100b6793          	ori	a5,s6,256
   11ea4:	04f12823          	sw	a5,80(sp)
   11ea8:	03612223          	sw	s6,36(sp)
   11eac:	500dc263          	bltz	s11,123b0 <_vfprintf_r+0x1e70>
   11eb0:	04012a23          	sw	zero,84(sp)
   11eb4:	00012823          	sw	zero,16(sp)
   11eb8:	0500006f          	j	11f08 <_vfprintf_r+0x19c8>
   11ebc:	07800793          	li	a5,120
   11ec0:	03000713          	li	a4,48
   11ec4:	06f10ca3          	sb	a5,121(sp)
   11ec8:	002b6793          	ori	a5,s6,2
   11ecc:	06e10c23          	sb	a4,120(sp)
   11ed0:	02f12223          	sw	a5,36(sp)
   11ed4:	06300713          	li	a4,99
   11ed8:	00012823          	sw	zero,16(sp)
   11edc:	0ec10b93          	addi	s7,sp,236
   11ee0:	6e674a63          	blt	a4,t1,125d4 <_vfprintf_r+0x2094>
   11ee4:	102b6793          	ori	a5,s6,258
   11ee8:	04f12823          	sw	a5,80(sp)
   11eec:	03012783          	lw	a5,48(sp)
   11ef0:	04012a23          	sw	zero,84(sp)
   11ef4:	00078d93          	mv	s11,a5
   11ef8:	4a07ce63          	bltz	a5,123b4 <_vfprintf_r+0x1e74>
   11efc:	06100713          	li	a4,97
   11f00:	00ee1463          	bne	t3,a4,11f08 <_vfprintf_r+0x19c8>
   11f04:	0a80106f          	j	12fac <_vfprintf_r+0x2a6c>
   11f08:	fbfe0713          	addi	a4,t3,-65
   11f0c:	02500693          	li	a3,37
   11f10:	02e6e063          	bltu	a3,a4,11f30 <_vfprintf_r+0x19f0>
   11f14:	00010697          	auipc	a3,0x10
   11f18:	a2468693          	addi	a3,a3,-1500 # 21938 <__clzsi2+0x288>
   11f1c:	00271713          	slli	a4,a4,0x2
   11f20:	00d70733          	add	a4,a4,a3
   11f24:	00072703          	lw	a4,0(a4)
   11f28:	00d70733          	add	a4,a4,a3
   11f2c:	00070067          	jr	a4
   11f30:	00030c93          	mv	s9,t1
   11f34:	00200693          	li	a3,2
   11f38:	02c12703          	lw	a4,44(sp)
   11f3c:	09810893          	addi	a7,sp,152
   11f40:	08410813          	addi	a6,sp,132
   11f44:	00070513          	mv	a0,a4
   11f48:	00050593          	mv	a1,a0
   11f4c:	000c8713          	mv	a4,s9
   11f50:	07c10793          	addi	a5,sp,124
   11f54:	000d8613          	mv	a2,s11
   11f58:	00098513          	mv	a0,s3
   11f5c:	02612023          	sw	t1,32(sp)
   11f60:	01c12c23          	sw	t3,24(sp)
   11f64:	1c5010ef          	jal	ra,13928 <_dtoa_r>
   11f68:	01812e03          	lw	t3,24(sp)
   11f6c:	06700713          	li	a4,103
   11f70:	02012303          	lw	t1,32(sp)
   11f74:	00050b93          	mv	s7,a0
   11f78:	4cee0063          	beq	t3,a4,12438 <_vfprintf_r+0x1ef8>
   11f7c:	04700713          	li	a4,71
   11f80:	4aee0c63          	beq	t3,a4,12438 <_vfprintf_r+0x1ef8>
   11f84:	fdfe7a13          	andi	s4,t3,-33
   11f88:	04600693          	li	a3,70
   11f8c:	01950c33          	add	s8,a0,s9
   11f90:	00da1c63          	bne	s4,a3,11fa8 <_vfprintf_r+0x1a68>
   11f94:	00054603          	lbu	a2,0(a0)
   11f98:	03000693          	li	a3,48
   11f9c:	66d60263          	beq	a2,a3,12600 <_vfprintf_r+0x20c0>
   11fa0:	07c12683          	lw	a3,124(sp)
   11fa4:	00dc0c33          	add	s8,s8,a3
   11fa8:	02c12683          	lw	a3,44(sp)
   11fac:	000d8593          	mv	a1,s11
   11fb0:	00000613          	li	a2,0
   11fb4:	00068513          	mv	a0,a3
   11fb8:	00000693          	li	a3,0
   11fbc:	02612023          	sw	t1,32(sp)
   11fc0:	01c12c23          	sw	t3,24(sp)
   11fc4:	49d0d0ef          	jal	ra,1fc60 <__eqdf2>
   11fc8:	01812e03          	lw	t3,24(sp)
   11fcc:	02012303          	lw	t1,32(sp)
   11fd0:	000c0b13          	mv	s6,s8
   11fd4:	02050263          	beqz	a0,11ff8 <_vfprintf_r+0x1ab8>
   11fd8:	09812b03          	lw	s6,152(sp)
   11fdc:	018b7e63          	bgeu	s6,s8,11ff8 <_vfprintf_r+0x1ab8>
   11fe0:	03000613          	li	a2,48
   11fe4:	001b0793          	addi	a5,s6,1
   11fe8:	08f12c23          	sw	a5,152(sp)
   11fec:	00cb0023          	sb	a2,0(s6)
   11ff0:	09812b03          	lw	s6,152(sp)
   11ff4:	ff8b68e3          	bltu	s6,s8,11fe4 <_vfprintf_r+0x1aa4>
   11ff8:	417b07b3          	sub	a5,s6,s7
   11ffc:	02f12023          	sw	a5,32(sp)
   12000:	07c12603          	lw	a2,124(sp)
   12004:	04700713          	li	a4,71
   12008:	00c12c23          	sw	a2,24(sp)
   1200c:	44ea0463          	beq	s4,a4,12454 <_vfprintf_r+0x1f14>
   12010:	04600713          	li	a4,70
   12014:	44ea08e3          	beq	s4,a4,12c64 <_vfprintf_r+0x2724>
   12018:	fff60b13          	addi	s6,a2,-1
   1201c:	07612e23          	sw	s6,124(sp)
   12020:	06100693          	li	a3,97
   12024:	00de1463          	bne	t3,a3,1202c <_vfprintf_r+0x1aec>
   12028:	0e40106f          	j	1310c <_vfprintf_r+0x2bcc>
   1202c:	04100593          	li	a1,65
   12030:	05000693          	li	a3,80
   12034:	42be1e63          	bne	t3,a1,12470 <_vfprintf_r+0x1f30>
   12038:	00100593          	li	a1,1
   1203c:	43c0006f          	j	12478 <_vfprintf_r+0x1f38>
   12040:	00812583          	lw	a1,8(sp)
   12044:	0a010613          	addi	a2,sp,160
   12048:	00098513          	mv	a0,s3
   1204c:	6c9070ef          	jal	ra,19f14 <__sprint_r>
   12050:	00050463          	beqz	a0,12058 <_vfprintf_r+0x1b18>
   12054:	999fe06f          	j	109ec <_vfprintf_r+0x4ac>
   12058:	0a812a03          	lw	s4,168(sp)
   1205c:	0ac10413          	addi	s0,sp,172
   12060:	884ff06f          	j	110e4 <_vfprintf_r+0xba4>
   12064:	00800613          	li	a2,8
   12068:	00000593          	li	a1,0
   1206c:	09810513          	addi	a0,sp,152
   12070:	00612a23          	sw	t1,20(sp)
   12074:	01c12823          	sw	t3,16(sp)
   12078:	09712223          	sw	s7,132(sp)
   1207c:	b5cfe0ef          	jal	ra,103d8 <memset>
   12080:	01412303          	lw	t1,20(sp)
   12084:	fff00713          	li	a4,-1
   12088:	01012e03          	lw	t3,16(sp)
   1208c:	7ee30a63          	beq	t1,a4,12880 <_vfprintf_r+0x2340>
   12090:	00000c93          	li	s9,0
   12094:	00912823          	sw	s1,16(sp)
   12098:	000b8c13          	mv	s8,s7
   1209c:	fff00a13          	li	s4,-1
   120a0:	00040b93          	mv	s7,s0
   120a4:	01c12a23          	sw	t3,20(sp)
   120a8:	000c8493          	mv	s1,s9
   120ac:	00030413          	mv	s0,t1
   120b0:	02c0006f          	j	120dc <_vfprintf_r+0x1b9c>
   120b4:	09810693          	addi	a3,sp,152
   120b8:	0ec10593          	addi	a1,sp,236
   120bc:	00098513          	mv	a0,s3
   120c0:	188010ef          	jal	ra,13248 <_wcrtomb_r>
   120c4:	5d4504e3          	beq	a0,s4,12e8c <_vfprintf_r+0x294c>
   120c8:	00a487b3          	add	a5,s1,a0
   120cc:	02f44063          	blt	s0,a5,120ec <_vfprintf_r+0x1bac>
   120d0:	004c8c93          	addi	s9,s9,4
   120d4:	72878ae3          	beq	a5,s0,13008 <_vfprintf_r+0x2ac8>
   120d8:	00078493          	mv	s1,a5
   120dc:	08412783          	lw	a5,132(sp)
   120e0:	019787b3          	add	a5,a5,s9
   120e4:	0007a603          	lw	a2,0(a5)
   120e8:	fc0616e3          	bnez	a2,120b4 <_vfprintf_r+0x1b74>
   120ec:	00048c93          	mv	s9,s1
   120f0:	01412e03          	lw	t3,20(sp)
   120f4:	01012483          	lw	s1,16(sp)
   120f8:	000b8413          	mv	s0,s7
   120fc:	000c0b93          	mv	s7,s8
   12100:	280c8ae3          	beqz	s9,12b94 <_vfprintf_r+0x2654>
   12104:	06300793          	li	a5,99
   12108:	3d97d6e3          	bge	a5,s9,12cd4 <_vfprintf_r+0x2794>
   1210c:	001c8593          	addi	a1,s9,1
   12110:	00098513          	mv	a0,s3
   12114:	01c12823          	sw	t3,16(sp)
   12118:	405040ef          	jal	ra,16d1c <_malloc_r>
   1211c:	01012e03          	lw	t3,16(sp)
   12120:	00050b93          	mv	s7,a0
   12124:	560504e3          	beqz	a0,12e8c <_vfprintf_r+0x294c>
   12128:	00a12823          	sw	a0,16(sp)
   1212c:	00800613          	li	a2,8
   12130:	00000593          	li	a1,0
   12134:	09810513          	addi	a0,sp,152
   12138:	01c12a23          	sw	t3,20(sp)
   1213c:	a9cfe0ef          	jal	ra,103d8 <memset>
   12140:	09810713          	addi	a4,sp,152
   12144:	000c8693          	mv	a3,s9
   12148:	08410613          	addi	a2,sp,132
   1214c:	000b8593          	mv	a1,s7
   12150:	00098513          	mv	a0,s3
   12154:	218010ef          	jal	ra,1336c <_wcsrtombs_r>
   12158:	01412e03          	lw	t3,20(sp)
   1215c:	00ac8463          	beq	s9,a0,12164 <_vfprintf_r+0x1c24>
   12160:	7c50006f          	j	13124 <_vfprintf_r+0x2be4>
   12164:	019b8733          	add	a4,s7,s9
   12168:	00070023          	sb	zero,0(a4)
   1216c:	07714603          	lbu	a2,119(sp)
   12170:	fffcc893          	not	a7,s9
   12174:	41f8d893          	srai	a7,a7,0x1f
   12178:	01b12a23          	sw	s11,20(sp)
   1217c:	02012423          	sw	zero,40(sp)
   12180:	02012223          	sw	zero,36(sp)
   12184:	00012c23          	sw	zero,24(sp)
   12188:	011cfc33          	and	s8,s9,a7
   1218c:	00000313          	li	t1,0
   12190:	00061463          	bnez	a2,12198 <_vfprintf_r+0x1c58>
   12194:	ddcfe06f          	j	10770 <_vfprintf_r+0x230>
   12198:	9d9fe06f          	j	10b70 <_vfprintf_r+0x630>
   1219c:	00048693          	mv	a3,s1
   121a0:	00090493          	mv	s1,s2
   121a4:	000a0913          	mv	s2,s4
   121a8:	00068a13          	mv	s4,a3
   121ac:	01970733          	add	a4,a4,s9
   121b0:	00178793          	addi	a5,a5,1
   121b4:	01442023          	sw	s4,0(s0)
   121b8:	e68fe06f          	j	10820 <_vfprintf_r+0x2e0>
   121bc:	01412783          	lw	a5,20(sp)
   121c0:	00c12703          	lw	a4,12(sp)
   121c4:	0007a783          	lw	a5,0(a5)
   121c8:	00e7a023          	sw	a4,0(a5)
   121cc:	ea9fe06f          	j	11074 <_vfprintf_r+0xb34>
   121d0:	00040793          	mv	a5,s0
   121d4:	000a0413          	mv	s0,s4
   121d8:	00078a13          	mv	s4,a5
   121dc:	00870733          	add	a4,a4,s0
   121e0:	001c8c93          	addi	s9,s9,1
   121e4:	014da023          	sw	s4,0(s11)
   121e8:	a75fe06f          	j	10c5c <_vfprintf_r+0x71c>
   121ec:	01000593          	li	a1,16
   121f0:	000a0713          	mv	a4,s4
   121f4:	0a412603          	lw	a2,164(sp)
   121f8:	0000fa17          	auipc	s4,0xf
   121fc:	7d8a0a13          	addi	s4,s4,2008 # 219d0 <zeroes.0>
   12200:	0f95da63          	bge	a1,s9,122f4 <_vfprintf_r+0x1db4>
   12204:	000a0793          	mv	a5,s4
   12208:	00812d83          	lw	s11,8(sp)
   1220c:	00090a13          	mv	s4,s2
   12210:	01000e13          	li	t3,16
   12214:	00048913          	mv	s2,s1
   12218:	00700f13          	li	t5,7
   1221c:	04612823          	sw	t1,80(sp)
   12220:	00078493          	mv	s1,a5
   12224:	00c0006f          	j	12230 <_vfprintf_r+0x1cf0>
   12228:	ff0c8c93          	addi	s9,s9,-16
   1222c:	0b9e5a63          	bge	t3,s9,122e0 <_vfprintf_r+0x1da0>
   12230:	01070713          	addi	a4,a4,16
   12234:	00160613          	addi	a2,a2,1
   12238:	00942023          	sw	s1,0(s0)
   1223c:	01c42223          	sw	t3,4(s0)
   12240:	0ae12423          	sw	a4,168(sp)
   12244:	0ac12223          	sw	a2,164(sp)
   12248:	00840413          	addi	s0,s0,8
   1224c:	fccf5ee3          	bge	t5,a2,12228 <_vfprintf_r+0x1ce8>
   12250:	0a010613          	addi	a2,sp,160
   12254:	000d8593          	mv	a1,s11
   12258:	00098513          	mv	a0,s3
   1225c:	4b9070ef          	jal	ra,19f14 <__sprint_r>
   12260:	00050463          	beqz	a0,12268 <_vfprintf_r+0x1d28>
   12264:	f88fe06f          	j	109ec <_vfprintf_r+0x4ac>
   12268:	0a812703          	lw	a4,168(sp)
   1226c:	0a412603          	lw	a2,164(sp)
   12270:	0ac10413          	addi	s0,sp,172
   12274:	00700f13          	li	t5,7
   12278:	01000e13          	li	t3,16
   1227c:	fadff06f          	j	12228 <_vfprintf_r+0x1ce8>
   12280:	03812683          	lw	a3,56(sp)
   12284:	03412783          	lw	a5,52(sp)
   12288:	00700593          	li	a1,7
   1228c:	00d42023          	sw	a3,0(s0)
   12290:	0a412683          	lw	a3,164(sp)
   12294:	00e78733          	add	a4,a5,a4
   12298:	00f42223          	sw	a5,4(s0)
   1229c:	00168693          	addi	a3,a3,1
   122a0:	0ae12423          	sw	a4,168(sp)
   122a4:	0ad12223          	sw	a3,164(sp)
   122a8:	00840413          	addi	s0,s0,8
   122ac:	14d5c663          	blt	a1,a3,123f8 <_vfprintf_r+0x1eb8>
   122b0:	220648e3          	bltz	a2,12ce0 <_vfprintf_r+0x27a0>
   122b4:	02012783          	lw	a5,32(sp)
   122b8:	00168693          	addi	a3,a3,1
   122bc:	01742023          	sw	s7,0(s0)
   122c0:	00e78733          	add	a4,a5,a4
   122c4:	00f42223          	sw	a5,4(s0)
   122c8:	0ae12423          	sw	a4,168(sp)
   122cc:	0ad12223          	sw	a3,164(sp)
   122d0:	00700793          	li	a5,7
   122d4:	00d7c463          	blt	a5,a3,122dc <_vfprintf_r+0x1d9c>
   122d8:	d5cfe06f          	j	10834 <_vfprintf_r+0x2f4>
   122dc:	9c5fe06f          	j	10ca0 <_vfprintf_r+0x760>
   122e0:	05012303          	lw	t1,80(sp)
   122e4:	00048793          	mv	a5,s1
   122e8:	00090493          	mv	s1,s2
   122ec:	000a0913          	mv	s2,s4
   122f0:	00078a13          	mv	s4,a5
   122f4:	00ec8733          	add	a4,s9,a4
   122f8:	00160613          	addi	a2,a2,1
   122fc:	01442023          	sw	s4,0(s0)
   12300:	01942223          	sw	s9,4(s0)
   12304:	0ae12423          	sw	a4,168(sp)
   12308:	0ac12223          	sw	a2,164(sp)
   1230c:	00700693          	li	a3,7
   12310:	28c6cc63          	blt	a3,a2,125a8 <_vfprintf_r+0x2068>
   12314:	00840413          	addi	s0,s0,8
   12318:	00070a13          	mv	s4,a4
   1231c:	b54ff06f          	j	11670 <_vfprintf_r+0x1130>
   12320:	00068c93          	mv	s9,a3
   12324:	bb8ff06f          	j	116dc <_vfprintf_r+0x119c>
   12328:	00812583          	lw	a1,8(sp)
   1232c:	0a010613          	addi	a2,sp,160
   12330:	00098513          	mv	a0,s3
   12334:	3e1070ef          	jal	ra,19f14 <__sprint_r>
   12338:	00050463          	beqz	a0,12340 <_vfprintf_r+0x1e00>
   1233c:	eb0fe06f          	j	109ec <_vfprintf_r+0x4ac>
   12340:	07c12603          	lw	a2,124(sp)
   12344:	0a812703          	lw	a4,168(sp)
   12348:	0ac10413          	addi	s0,sp,172
   1234c:	e78ff06f          	j	119c4 <_vfprintf_r+0x1484>
   12350:	00600c13          	li	s8,6
   12354:	8b9ff06f          	j	11c0c <_vfprintf_r+0x16cc>
   12358:	40d786b3          	sub	a3,a5,a3
   1235c:	41730cb3          	sub	s9,t1,s7
   12360:	000a0713          	mv	a4,s4
   12364:	bb96d463          	bge	a3,s9,1170c <_vfprintf_r+0x11cc>
   12368:	00068c93          	mv	s9,a3
   1236c:	ba0ff06f          	j	1170c <_vfprintf_r+0x11cc>
   12370:	0ffdfd93          	zext.b	s11,s11
   12374:	00000c93          	li	s9,0
   12378:	ffcff06f          	j	11b74 <_vfprintf_r+0x1634>
   1237c:	018d9d93          	slli	s11,s11,0x18
   12380:	418ddd93          	srai	s11,s11,0x18
   12384:	41fddc93          	srai	s9,s11,0x1f
   12388:	000c8793          	mv	a5,s9
   1238c:	c35fe06f          	j	10fc0 <_vfprintf_r+0xa80>
   12390:	01412783          	lw	a5,20(sp)
   12394:	00c12703          	lw	a4,12(sp)
   12398:	0007a783          	lw	a5,0(a5)
   1239c:	00e79023          	sh	a4,0(a5)
   123a0:	cd5fe06f          	j	11074 <_vfprintf_r+0xb34>
   123a4:	0ffdfd93          	zext.b	s11,s11
   123a8:	00000c93          	li	s9,0
   123ac:	b1dfe06f          	j	10ec8 <_vfprintf_r+0x988>
   123b0:	00012823          	sw	zero,16(sp)
   123b4:	03012783          	lw	a5,48(sp)
   123b8:	80000737          	lui	a4,0x80000
   123bc:	00f74db3          	xor	s11,a4,a5
   123c0:	02d00793          	li	a5,45
   123c4:	04f12a23          	sw	a5,84(sp)
   123c8:	b35ff06f          	j	11efc <_vfprintf_r+0x19bc>
   123cc:	00812583          	lw	a1,8(sp)
   123d0:	0a010613          	addi	a2,sp,160
   123d4:	00098513          	mv	a0,s3
   123d8:	33d070ef          	jal	ra,19f14 <__sprint_r>
   123dc:	00051463          	bnez	a0,123e4 <_vfprintf_r+0x1ea4>
   123e0:	dccfe06f          	j	109ac <_vfprintf_r+0x46c>
   123e4:	e1cfe06f          	j	10a00 <_vfprintf_r+0x4c0>
   123e8:	000b8513          	mv	a0,s7
   123ec:	5e4070ef          	jal	ra,199d0 <strlen>
   123f0:	00050c93          	mv	s9,a0
   123f4:	9c5fe06f          	j	10db8 <_vfprintf_r+0x878>
   123f8:	00812583          	lw	a1,8(sp)
   123fc:	0a010613          	addi	a2,sp,160
   12400:	00098513          	mv	a0,s3
   12404:	311070ef          	jal	ra,19f14 <__sprint_r>
   12408:	00050463          	beqz	a0,12410 <_vfprintf_r+0x1ed0>
   1240c:	de0fe06f          	j	109ec <_vfprintf_r+0x4ac>
   12410:	07c12603          	lw	a2,124(sp)
   12414:	0a812703          	lw	a4,168(sp)
   12418:	0a412683          	lw	a3,164(sp)
   1241c:	0ac10413          	addi	s0,sp,172
   12420:	e91ff06f          	j	122b0 <_vfprintf_r+0x1d70>
   12424:	05862503          	lw	a0,88(a2)
   12428:	00f12623          	sw	a5,12(sp)
   1242c:	684040ef          	jal	ra,16ab0 <__retarget_lock_release_recursive>
   12430:	00c12783          	lw	a5,12(sp)
   12434:	ca8fe06f          	j	108dc <_vfprintf_r+0x39c>
   12438:	02412783          	lw	a5,36(sp)
   1243c:	0017f713          	andi	a4,a5,1
   12440:	10071ae3          	bnez	a4,12d54 <_vfprintf_r+0x2814>
   12444:	09812b03          	lw	s6,152(sp)
   12448:	07c12603          	lw	a2,124(sp)
   1244c:	417b07b3          	sub	a5,s6,s7
   12450:	02f12023          	sw	a5,32(sp)
   12454:	ffd00713          	li	a4,-3
   12458:	00c12c23          	sw	a2,24(sp)
   1245c:	00e64463          	blt	a2,a4,12464 <_vfprintf_r+0x1f24>
   12460:	46c35463          	bge	t1,a2,128c8 <_vfprintf_r+0x2388>
   12464:	fff60b13          	addi	s6,a2,-1
   12468:	ffee0e13          	addi	t3,t3,-2
   1246c:	07612e23          	sw	s6,124(sp)
   12470:	0ffe7693          	zext.b	a3,t3
   12474:	00000593          	li	a1,0
   12478:	08d10423          	sb	a3,136(sp)
   1247c:	02b00693          	li	a3,43
   12480:	000b5863          	bgez	s6,12490 <_vfprintf_r+0x1f50>
   12484:	00100713          	li	a4,1
   12488:	40c70b33          	sub	s6,a4,a2
   1248c:	02d00693          	li	a3,45
   12490:	08d104a3          	sb	a3,137(sp)
   12494:	00900693          	li	a3,9
   12498:	2166d4e3          	bge	a3,s6,12ea0 <_vfprintf_r+0x2960>
   1249c:	09f10c93          	addi	s9,sp,159
   124a0:	00098a13          	mv	s4,s3
   124a4:	06300d93          	li	s11,99
   124a8:	00040993          	mv	s3,s0
   124ac:	00912c23          	sw	s1,24(sp)
   124b0:	03c12423          	sw	t3,40(sp)
   124b4:	000c8413          	mv	s0,s9
   124b8:	00a00593          	li	a1,10
   124bc:	000b0513          	mv	a0,s6
   124c0:	1c00f0ef          	jal	ra,21680 <__modsi3>
   124c4:	03050793          	addi	a5,a0,48
   124c8:	fef40fa3          	sb	a5,-1(s0)
   124cc:	000b0513          	mv	a0,s6
   124d0:	00a00593          	li	a1,10
   124d4:	000b0493          	mv	s1,s6
   124d8:	1240f0ef          	jal	ra,215fc <__divsi3>
   124dc:	00040c13          	mv	s8,s0
   124e0:	00050b13          	mv	s6,a0
   124e4:	fff40413          	addi	s0,s0,-1
   124e8:	fc9dc8e3          	blt	s11,s1,124b8 <_vfprintf_r+0x1f78>
   124ec:	000a0793          	mv	a5,s4
   124f0:	03050713          	addi	a4,a0,48
   124f4:	000c0a13          	mv	s4,s8
   124f8:	00040c13          	mv	s8,s0
   124fc:	ffea0693          	addi	a3,s4,-2
   12500:	feec0fa3          	sb	a4,-1(s8)
   12504:	00098413          	mv	s0,s3
   12508:	01812483          	lw	s1,24(sp)
   1250c:	02812e03          	lw	t3,40(sp)
   12510:	00078993          	mv	s3,a5
   12514:	3f96f6e3          	bgeu	a3,s9,13100 <_vfprintf_r+0x2bc0>
   12518:	08a10713          	addi	a4,sp,138
   1251c:	0006c783          	lbu	a5,0(a3)
   12520:	00168693          	addi	a3,a3,1
   12524:	00170713          	addi	a4,a4,1 # 80000001 <__BSS_END__+0x7ffdc1d1>
   12528:	fef70fa3          	sb	a5,-1(a4)
   1252c:	ff9698e3          	bne	a3,s9,1251c <_vfprintf_r+0x1fdc>
   12530:	0a110713          	addi	a4,sp,161
   12534:	08a10793          	addi	a5,sp,138
   12538:	41470733          	sub	a4,a4,s4
   1253c:	00e78733          	add	a4,a5,a4
   12540:	08810693          	addi	a3,sp,136
   12544:	40d707b3          	sub	a5,a4,a3
   12548:	04f12223          	sw	a5,68(sp)
   1254c:	02012783          	lw	a5,32(sp)
   12550:	04412683          	lw	a3,68(sp)
   12554:	00100713          	li	a4,1
   12558:	00d78cb3          	add	s9,a5,a3
   1255c:	1af756e3          	bge	a4,a5,12f08 <_vfprintf_r+0x29c8>
   12560:	03412783          	lw	a5,52(sp)
   12564:	00fc8cb3          	add	s9,s9,a5
   12568:	02412783          	lw	a5,36(sp)
   1256c:	fffcc893          	not	a7,s9
   12570:	41f8d893          	srai	a7,a7,0x1f
   12574:	bff7f813          	andi	a6,a5,-1025
   12578:	10086b13          	ori	s6,a6,256
   1257c:	011cfc33          	and	s8,s9,a7
   12580:	02012423          	sw	zero,40(sp)
   12584:	02012223          	sw	zero,36(sp)
   12588:	00012c23          	sw	zero,24(sp)
   1258c:	05412783          	lw	a5,84(sp)
   12590:	2c079c63          	bnez	a5,12868 <_vfprintf_r+0x2328>
   12594:	07714603          	lbu	a2,119(sp)
   12598:	00000313          	li	t1,0
   1259c:	00061463          	bnez	a2,125a4 <_vfprintf_r+0x2064>
   125a0:	9d0fe06f          	j	10770 <_vfprintf_r+0x230>
   125a4:	dccfe06f          	j	10b70 <_vfprintf_r+0x630>
   125a8:	00812583          	lw	a1,8(sp)
   125ac:	0a010613          	addi	a2,sp,160
   125b0:	00098513          	mv	a0,s3
   125b4:	04612823          	sw	t1,80(sp)
   125b8:	15d070ef          	jal	ra,19f14 <__sprint_r>
   125bc:	00050463          	beqz	a0,125c4 <_vfprintf_r+0x2084>
   125c0:	c2cfe06f          	j	109ec <_vfprintf_r+0x4ac>
   125c4:	0a812a03          	lw	s4,168(sp)
   125c8:	05012303          	lw	t1,80(sp)
   125cc:	0ac10413          	addi	s0,sp,172
   125d0:	8a0ff06f          	j	11670 <_vfprintf_r+0x1130>
   125d4:	00130593          	addi	a1,t1,1
   125d8:	00098513          	mv	a0,s3
   125dc:	01c12c23          	sw	t3,24(sp)
   125e0:	00612823          	sw	t1,16(sp)
   125e4:	738040ef          	jal	ra,16d1c <_malloc_r>
   125e8:	01012303          	lw	t1,16(sp)
   125ec:	01812e03          	lw	t3,24(sp)
   125f0:	00050b93          	mv	s7,a0
   125f4:	08050ce3          	beqz	a0,12e8c <_vfprintf_r+0x294c>
   125f8:	00a12823          	sw	a0,16(sp)
   125fc:	8e9ff06f          	j	11ee4 <_vfprintf_r+0x19a4>
   12600:	02c12603          	lw	a2,44(sp)
   12604:	000d8593          	mv	a1,s11
   12608:	00000693          	li	a3,0
   1260c:	00060513          	mv	a0,a2
   12610:	00000613          	li	a2,0
   12614:	02612023          	sw	t1,32(sp)
   12618:	01c12c23          	sw	t3,24(sp)
   1261c:	6440d0ef          	jal	ra,1fc60 <__eqdf2>
   12620:	01812e03          	lw	t3,24(sp)
   12624:	02012303          	lw	t1,32(sp)
   12628:	96050ce3          	beqz	a0,11fa0 <_vfprintf_r+0x1a60>
   1262c:	00100693          	li	a3,1
   12630:	419686b3          	sub	a3,a3,s9
   12634:	06d12e23          	sw	a3,124(sp)
   12638:	96dff06f          	j	11fa4 <_vfprintf_r+0x1a64>
   1263c:	02c12703          	lw	a4,44(sp)
   12640:	000d8593          	mv	a1,s11
   12644:	07c10613          	addi	a2,sp,124
   12648:	00070513          	mv	a0,a4
   1264c:	02612023          	sw	t1,32(sp)
   12650:	01c12c23          	sw	t3,24(sp)
   12654:	4a9060ef          	jal	ra,192fc <frexp>
   12658:	00011717          	auipc	a4,0x11
   1265c:	43070713          	addi	a4,a4,1072 # 23a88 <__SDATA_BEGIN__+0x8>
   12660:	00072603          	lw	a2,0(a4)
   12664:	00472683          	lw	a3,4(a4)
   12668:	0890d0ef          	jal	ra,1fef0 <__muldf3>
   1266c:	00000613          	li	a2,0
   12670:	00000693          	li	a3,0
   12674:	00050c93          	mv	s9,a0
   12678:	00058d93          	mv	s11,a1
   1267c:	5e40d0ef          	jal	ra,1fc60 <__eqdf2>
   12680:	01812e03          	lw	t3,24(sp)
   12684:	02012303          	lw	t1,32(sp)
   12688:	00051e63          	bnez	a0,126a4 <_vfprintf_r+0x2164>
   1268c:	00100713          	li	a4,1
   12690:	06e12e23          	sw	a4,124(sp)
   12694:	06100713          	li	a4,97
   12698:	0000f817          	auipc	a6,0xf
   1269c:	10080813          	addi	a6,a6,256 # 21798 <__clzsi2+0xe8>
   126a0:	00ee0663          	beq	t3,a4,126ac <_vfprintf_r+0x216c>
   126a4:	0000f817          	auipc	a6,0xf
   126a8:	10880813          	addi	a6,a6,264 # 217ac <__clzsi2+0xfc>
   126ac:	00011717          	auipc	a4,0x11
   126b0:	3e470713          	addi	a4,a4,996 # 23a90 <__SDATA_BEGIN__+0x10>
   126b4:	00472783          	lw	a5,4(a4)
   126b8:	00072703          	lw	a4,0(a4)
   126bc:	05212c23          	sw	s2,88(sp)
   126c0:	00f12e23          	sw	a5,28(sp)
   126c4:	000c8793          	mv	a5,s9
   126c8:	000b8913          	mv	s2,s7
   126cc:	00098c93          	mv	s9,s3
   126d0:	000d8a13          	mv	s4,s11
   126d4:	00e12c23          	sw	a4,24(sp)
   126d8:	000b8d93          	mv	s11,s7
   126dc:	fff30c13          	addi	s8,t1,-1
   126e0:	00040b93          	mv	s7,s0
   126e4:	02912023          	sw	s1,32(sp)
   126e8:	03c12423          	sw	t3,40(sp)
   126ec:	04612e23          	sw	t1,92(sp)
   126f0:	00080413          	mv	s0,a6
   126f4:	00078993          	mv	s3,a5
   126f8:	01c0006f          	j	12714 <_vfprintf_r+0x21d4>
   126fc:	00000693          	li	a3,0
   12700:	00000613          	li	a2,0
   12704:	55c0d0ef          	jal	ra,1fc60 <__eqdf2>
   12708:	fffc0693          	addi	a3,s8,-1
   1270c:	7c050263          	beqz	a0,12ed0 <_vfprintf_r+0x2990>
   12710:	00068c13          	mv	s8,a3
   12714:	01812603          	lw	a2,24(sp)
   12718:	01c12683          	lw	a3,28(sp)
   1271c:	00098513          	mv	a0,s3
   12720:	000a0593          	mv	a1,s4
   12724:	7cc0d0ef          	jal	ra,1fef0 <__muldf3>
   12728:	00058493          	mv	s1,a1
   1272c:	00050993          	mv	s3,a0
   12730:	1050e0ef          	jal	ra,21034 <__fixdfsi>
   12734:	00050b13          	mv	s6,a0
   12738:	1810e0ef          	jal	ra,210b8 <__floatsidf>
   1273c:	00058693          	mv	a3,a1
   12740:	00050613          	mv	a2,a0
   12744:	00048593          	mv	a1,s1
   12748:	00098513          	mv	a0,s3
   1274c:	7810d0ef          	jal	ra,206cc <__subdf3>
   12750:	01640733          	add	a4,s0,s6
   12754:	00074683          	lbu	a3,0(a4)
   12758:	fff00793          	li	a5,-1
   1275c:	00090493          	mv	s1,s2
   12760:	00d90023          	sb	a3,0(s2)
   12764:	00050993          	mv	s3,a0
   12768:	00190913          	addi	s2,s2,1
   1276c:	00058a13          	mv	s4,a1
   12770:	f8fc16e3          	bne	s8,a5,126fc <_vfprintf_r+0x21bc>
   12774:	00912c23          	sw	s1,24(sp)
   12778:	00090a13          	mv	s4,s2
   1277c:	02812e03          	lw	t3,40(sp)
   12780:	05c12303          	lw	t1,92(sp)
   12784:	02012483          	lw	s1,32(sp)
   12788:	05812903          	lw	s2,88(sp)
   1278c:	00040813          	mv	a6,s0
   12790:	000c8993          	mv	s3,s9
   12794:	000b8413          	mv	s0,s7
   12798:	00050c93          	mv	s9,a0
   1279c:	000d8b93          	mv	s7,s11
   127a0:	fff00c13          	li	s8,-1
   127a4:	00058d93          	mv	s11,a1
   127a8:	00011697          	auipc	a3,0x11
   127ac:	2f068693          	addi	a3,a3,752 # 23a98 <__SDATA_BEGIN__+0x18>
   127b0:	0006a703          	lw	a4,0(a3)
   127b4:	0046a783          	lw	a5,4(a3)
   127b8:	000c8513          	mv	a0,s9
   127bc:	000d8593          	mv	a1,s11
   127c0:	00070613          	mv	a2,a4
   127c4:	00078693          	mv	a3,a5
   127c8:	05012c23          	sw	a6,88(sp)
   127cc:	02612423          	sw	t1,40(sp)
   127d0:	03c12023          	sw	t3,32(sp)
   127d4:	5180d0ef          	jal	ra,1fcec <__gedf2>
   127d8:	02012e03          	lw	t3,32(sp)
   127dc:	02812303          	lw	t1,40(sp)
   127e0:	05812803          	lw	a6,88(sp)
   127e4:	5ea04863          	bgtz	a0,12dd4 <_vfprintf_r+0x2894>
   127e8:	00011797          	auipc	a5,0x11
   127ec:	2b078793          	addi	a5,a5,688 # 23a98 <__SDATA_BEGIN__+0x18>
   127f0:	0007a703          	lw	a4,0(a5)
   127f4:	0047a783          	lw	a5,4(a5)
   127f8:	000c8513          	mv	a0,s9
   127fc:	000d8593          	mv	a1,s11
   12800:	00070613          	mv	a2,a4
   12804:	00078693          	mv	a3,a5
   12808:	4580d0ef          	jal	ra,1fc60 <__eqdf2>
   1280c:	02012e03          	lw	t3,32(sp)
   12810:	02812303          	lw	t1,40(sp)
   12814:	05812803          	lw	a6,88(sp)
   12818:	00051663          	bnez	a0,12824 <_vfprintf_r+0x22e4>
   1281c:	001b7b13          	andi	s6,s6,1
   12820:	5a0b1a63          	bnez	s6,12dd4 <_vfprintf_r+0x2894>
   12824:	001c0b13          	addi	s6,s8,1
   12828:	016a0b33          	add	s6,s4,s6
   1282c:	03000693          	li	a3,48
   12830:	5e0c4663          	bltz	s8,12e1c <_vfprintf_r+0x28dc>
   12834:	001a0a13          	addi	s4,s4,1
   12838:	feda0fa3          	sb	a3,-1(s4)
   1283c:	ff4b1ce3          	bne	s6,s4,12834 <_vfprintf_r+0x22f4>
   12840:	417b07b3          	sub	a5,s6,s7
   12844:	02f12023          	sw	a5,32(sp)
   12848:	fdfe7a13          	andi	s4,t3,-33
   1284c:	fb4ff06f          	j	12000 <_vfprintf_r+0x1ac0>
   12850:	00130c93          	addi	s9,t1,1
   12854:	00200693          	li	a3,2
   12858:	ee0ff06f          	j	11f38 <_vfprintf_r+0x19f8>
   1285c:	00030c93          	mv	s9,t1
   12860:	00300693          	li	a3,3
   12864:	ed4ff06f          	j	11f38 <_vfprintf_r+0x19f8>
   12868:	02d00713          	li	a4,45
   1286c:	06e10ba3          	sb	a4,119(sp)
   12870:	02d00613          	li	a2,45
   12874:	00000313          	li	t1,0
   12878:	001c0c13          	addi	s8,s8,1
   1287c:	ef5fd06f          	j	10770 <_vfprintf_r+0x230>
   12880:	09810713          	addi	a4,sp,152
   12884:	00000693          	li	a3,0
   12888:	08410613          	addi	a2,sp,132
   1288c:	00000593          	li	a1,0
   12890:	00098513          	mv	a0,s3
   12894:	00612a23          	sw	t1,20(sp)
   12898:	01c12823          	sw	t3,16(sp)
   1289c:	2d1000ef          	jal	ra,1336c <_wcsrtombs_r>
   128a0:	01412303          	lw	t1,20(sp)
   128a4:	01012e03          	lw	t3,16(sp)
   128a8:	00050c93          	mv	s9,a0
   128ac:	5e650063          	beq	a0,t1,12e8c <_vfprintf_r+0x294c>
   128b0:	09712223          	sw	s7,132(sp)
   128b4:	84dff06f          	j	12100 <_vfprintf_r+0x1bc0>
   128b8:	02d00793          	li	a5,45
   128bc:	06f10ba3          	sb	a5,119(sp)
   128c0:	02d00613          	li	a2,45
   128c4:	a70fe06f          	j	10b34 <_vfprintf_r+0x5f4>
   128c8:	02012703          	lw	a4,32(sp)
   128cc:	48e64a63          	blt	a2,a4,12d60 <_vfprintf_r+0x2820>
   128d0:	02412783          	lw	a5,36(sp)
   128d4:	00060c93          	mv	s9,a2
   128d8:	0017f713          	andi	a4,a5,1
   128dc:	00070663          	beqz	a4,128e8 <_vfprintf_r+0x23a8>
   128e0:	03412783          	lw	a5,52(sp)
   128e4:	00f60cb3          	add	s9,a2,a5
   128e8:	02412783          	lw	a5,36(sp)
   128ec:	4007f713          	andi	a4,a5,1024
   128f0:	00070463          	beqz	a4,128f8 <_vfprintf_r+0x23b8>
   128f4:	62c04663          	bgtz	a2,12f20 <_vfprintf_r+0x29e0>
   128f8:	fffcc893          	not	a7,s9
   128fc:	05012b03          	lw	s6,80(sp)
   12900:	41f8d893          	srai	a7,a7,0x1f
   12904:	011cfc33          	and	s8,s9,a7
   12908:	06700e13          	li	t3,103
   1290c:	02012423          	sw	zero,40(sp)
   12910:	02012223          	sw	zero,36(sp)
   12914:	c79ff06f          	j	1258c <_vfprintf_r+0x204c>
   12918:	04812783          	lw	a5,72(sp)
   1291c:	04c12583          	lw	a1,76(sp)
   12920:	00000493          	li	s1,0
   12924:	40f40433          	sub	s0,s0,a5
   12928:	00078613          	mv	a2,a5
   1292c:	00040513          	mv	a0,s0
   12930:	1a8070ef          	jal	ra,19ad8 <strncpy>
   12934:	001b4703          	lbu	a4,1(s6)
   12938:	00a00613          	li	a2,10
   1293c:	00000693          	li	a3,0
   12940:	00e03733          	snez	a4,a4
   12944:	000d8513          	mv	a0,s11
   12948:	000c8593          	mv	a1,s9
   1294c:	00eb0b33          	add	s6,s6,a4
   12950:	5780b0ef          	jal	ra,1dec8 <__udivdi3>
   12954:	c28ff06f          	j	11d7c <_vfprintf_r+0x183c>
   12958:	00040793          	mv	a5,s0
   1295c:	02412403          	lw	s0,36(sp)
   12960:	04912823          	sw	s1,80(sp)
   12964:	05612a23          	sw	s6,84(sp)
   12968:	05212c23          	sw	s2,88(sp)
   1296c:	05812e23          	sw	s8,92(sp)
   12970:	000b8b13          	mv	s6,s7
   12974:	000a0613          	mv	a2,s4
   12978:	04c12903          	lw	s2,76(sp)
   1297c:	04812b83          	lw	s7,72(sp)
   12980:	02812c03          	lw	s8,40(sp)
   12984:	00812d83          	lw	s11,8(sp)
   12988:	04012a03          	lw	s4,64(sp)
   1298c:	00700e13          	li	t3,7
   12990:	01000693          	li	a3,16
   12994:	0000ff17          	auipc	t5,0xf
   12998:	03cf0f13          	addi	t5,t5,60 # 219d0 <zeroes.0>
   1299c:	00030493          	mv	s1,t1
   129a0:	08040463          	beqz	s0,12a28 <_vfprintf_r+0x24e8>
   129a4:	160c0c63          	beqz	s8,12b1c <_vfprintf_r+0x25dc>
   129a8:	fffc0c13          	addi	s8,s8,-1
   129ac:	0a412703          	lw	a4,164(sp)
   129b0:	01760633          	add	a2,a2,s7
   129b4:	0127a023          	sw	s2,0(a5)
   129b8:	00170713          	addi	a4,a4,1
   129bc:	0177a223          	sw	s7,4(a5)
   129c0:	0ac12423          	sw	a2,168(sp)
   129c4:	0ae12223          	sw	a4,164(sp)
   129c8:	00878793          	addi	a5,a5,8
   129cc:	14ee4e63          	blt	t3,a4,12b28 <_vfprintf_r+0x25e8>
   129d0:	000a4703          	lbu	a4,0(s4)
   129d4:	41648cb3          	sub	s9,s1,s6
   129d8:	01975463          	bge	a4,s9,129e0 <_vfprintf_r+0x24a0>
   129dc:	00070c93          	mv	s9,a4
   129e0:	03905663          	blez	s9,12a0c <_vfprintf_r+0x24cc>
   129e4:	0a412703          	lw	a4,164(sp)
   129e8:	01960633          	add	a2,a2,s9
   129ec:	0167a023          	sw	s6,0(a5)
   129f0:	00170713          	addi	a4,a4,1
   129f4:	0197a223          	sw	s9,4(a5)
   129f8:	0ac12423          	sw	a2,168(sp)
   129fc:	0ae12223          	sw	a4,164(sp)
   12a00:	14ee4e63          	blt	t3,a4,12b5c <_vfprintf_r+0x261c>
   12a04:	000a4703          	lbu	a4,0(s4)
   12a08:	00878793          	addi	a5,a5,8
   12a0c:	fffcc593          	not	a1,s9
   12a10:	41f5d593          	srai	a1,a1,0x1f
   12a14:	00bcfcb3          	and	s9,s9,a1
   12a18:	41970cb3          	sub	s9,a4,s9
   12a1c:	05904263          	bgtz	s9,12a60 <_vfprintf_r+0x2520>
   12a20:	00eb0b33          	add	s6,s6,a4
   12a24:	f80410e3          	bnez	s0,129a4 <_vfprintf_r+0x2464>
   12a28:	f80c10e3          	bnez	s8,129a8 <_vfprintf_r+0x2468>
   12a2c:	00048313          	mv	t1,s1
   12a30:	05412023          	sw	s4,64(sp)
   12a34:	000b0b93          	mv	s7,s6
   12a38:	05012483          	lw	s1,80(sp)
   12a3c:	05412b03          	lw	s6,84(sp)
   12a40:	05812903          	lw	s2,88(sp)
   12a44:	05c12c03          	lw	s8,92(sp)
   12a48:	00078413          	mv	s0,a5
   12a4c:	00060a13          	mv	s4,a2
   12a50:	01736463          	bltu	t1,s7,12a58 <_vfprintf_r+0x2518>
   12a54:	c31fe06f          	j	11684 <_vfprintf_r+0x1144>
   12a58:	00030b93          	mv	s7,t1
   12a5c:	c29fe06f          	j	11684 <_vfprintf_r+0x1144>
   12a60:	0a412703          	lw	a4,164(sp)
   12a64:	0000f597          	auipc	a1,0xf
   12a68:	f6c58593          	addi	a1,a1,-148 # 219d0 <zeroes.0>
   12a6c:	0996d263          	bge	a3,s9,12af0 <_vfprintf_r+0x25b0>
   12a70:	00812c23          	sw	s0,24(sp)
   12a74:	000c8413          	mv	s0,s9
   12a78:	000f0c93          	mv	s9,t5
   12a7c:	00c0006f          	j	12a88 <_vfprintf_r+0x2548>
   12a80:	ff040413          	addi	s0,s0,-16
   12a84:	0686d063          	bge	a3,s0,12ae4 <_vfprintf_r+0x25a4>
   12a88:	01060613          	addi	a2,a2,16
   12a8c:	00170713          	addi	a4,a4,1
   12a90:	01e7a023          	sw	t5,0(a5)
   12a94:	00d7a223          	sw	a3,4(a5)
   12a98:	0ac12423          	sw	a2,168(sp)
   12a9c:	0ae12223          	sw	a4,164(sp)
   12aa0:	00878793          	addi	a5,a5,8
   12aa4:	fcee5ee3          	bge	t3,a4,12a80 <_vfprintf_r+0x2540>
   12aa8:	0a010613          	addi	a2,sp,160
   12aac:	000d8593          	mv	a1,s11
   12ab0:	00098513          	mv	a0,s3
   12ab4:	460070ef          	jal	ra,19f14 <__sprint_r>
   12ab8:	00050463          	beqz	a0,12ac0 <_vfprintf_r+0x2580>
   12abc:	f31fd06f          	j	109ec <_vfprintf_r+0x4ac>
   12ac0:	01000693          	li	a3,16
   12ac4:	ff040413          	addi	s0,s0,-16
   12ac8:	0a812603          	lw	a2,168(sp)
   12acc:	0a412703          	lw	a4,164(sp)
   12ad0:	0ac10793          	addi	a5,sp,172
   12ad4:	0000ff17          	auipc	t5,0xf
   12ad8:	efcf0f13          	addi	t5,t5,-260 # 219d0 <zeroes.0>
   12adc:	00700e13          	li	t3,7
   12ae0:	fa86c4e3          	blt	a3,s0,12a88 <_vfprintf_r+0x2548>
   12ae4:	000c8593          	mv	a1,s9
   12ae8:	00040c93          	mv	s9,s0
   12aec:	01812403          	lw	s0,24(sp)
   12af0:	00cc8633          	add	a2,s9,a2
   12af4:	00170713          	addi	a4,a4,1
   12af8:	00b7a023          	sw	a1,0(a5)
   12afc:	0197a223          	sw	s9,4(a5)
   12b00:	0ac12423          	sw	a2,168(sp)
   12b04:	0ae12223          	sw	a4,164(sp)
   12b08:	0aee4c63          	blt	t3,a4,12bc0 <_vfprintf_r+0x2680>
   12b0c:	000a4703          	lbu	a4,0(s4)
   12b10:	00878793          	addi	a5,a5,8
   12b14:	00eb0b33          	add	s6,s6,a4
   12b18:	f0dff06f          	j	12a24 <_vfprintf_r+0x24e4>
   12b1c:	fffa0a13          	addi	s4,s4,-1
   12b20:	fff40413          	addi	s0,s0,-1
   12b24:	e89ff06f          	j	129ac <_vfprintf_r+0x246c>
   12b28:	0a010613          	addi	a2,sp,160
   12b2c:	000d8593          	mv	a1,s11
   12b30:	00098513          	mv	a0,s3
   12b34:	3e0070ef          	jal	ra,19f14 <__sprint_r>
   12b38:	00050463          	beqz	a0,12b40 <_vfprintf_r+0x2600>
   12b3c:	eb1fd06f          	j	109ec <_vfprintf_r+0x4ac>
   12b40:	0a812603          	lw	a2,168(sp)
   12b44:	0ac10793          	addi	a5,sp,172
   12b48:	0000ff17          	auipc	t5,0xf
   12b4c:	e88f0f13          	addi	t5,t5,-376 # 219d0 <zeroes.0>
   12b50:	01000693          	li	a3,16
   12b54:	00700e13          	li	t3,7
   12b58:	e79ff06f          	j	129d0 <_vfprintf_r+0x2490>
   12b5c:	0a010613          	addi	a2,sp,160
   12b60:	000d8593          	mv	a1,s11
   12b64:	00098513          	mv	a0,s3
   12b68:	3ac070ef          	jal	ra,19f14 <__sprint_r>
   12b6c:	00050463          	beqz	a0,12b74 <_vfprintf_r+0x2634>
   12b70:	e7dfd06f          	j	109ec <_vfprintf_r+0x4ac>
   12b74:	000a4703          	lbu	a4,0(s4)
   12b78:	0a812603          	lw	a2,168(sp)
   12b7c:	0ac10793          	addi	a5,sp,172
   12b80:	0000ff17          	auipc	t5,0xf
   12b84:	e50f0f13          	addi	t5,t5,-432 # 219d0 <zeroes.0>
   12b88:	01000693          	li	a3,16
   12b8c:	00700e13          	li	t3,7
   12b90:	e7dff06f          	j	12a0c <_vfprintf_r+0x24cc>
   12b94:	07714603          	lbu	a2,119(sp)
   12b98:	01b12a23          	sw	s11,20(sp)
   12b9c:	02012423          	sw	zero,40(sp)
   12ba0:	02012223          	sw	zero,36(sp)
   12ba4:	00012c23          	sw	zero,24(sp)
   12ba8:	00012823          	sw	zero,16(sp)
   12bac:	00000c13          	li	s8,0
   12bb0:	00000313          	li	t1,0
   12bb4:	00061463          	bnez	a2,12bbc <_vfprintf_r+0x267c>
   12bb8:	bb9fd06f          	j	10770 <_vfprintf_r+0x230>
   12bbc:	fb5fd06f          	j	10b70 <_vfprintf_r+0x630>
   12bc0:	0a010613          	addi	a2,sp,160
   12bc4:	000d8593          	mv	a1,s11
   12bc8:	00098513          	mv	a0,s3
   12bcc:	348070ef          	jal	ra,19f14 <__sprint_r>
   12bd0:	00050463          	beqz	a0,12bd8 <_vfprintf_r+0x2698>
   12bd4:	e19fd06f          	j	109ec <_vfprintf_r+0x4ac>
   12bd8:	000a4703          	lbu	a4,0(s4)
   12bdc:	0a812603          	lw	a2,168(sp)
   12be0:	0ac10793          	addi	a5,sp,172
   12be4:	0000ff17          	auipc	t5,0xf
   12be8:	decf0f13          	addi	t5,t5,-532 # 219d0 <zeroes.0>
   12bec:	01000693          	li	a3,16
   12bf0:	00700e13          	li	t3,7
   12bf4:	00eb0b33          	add	s6,s6,a4
   12bf8:	e2dff06f          	j	12a24 <_vfprintf_r+0x24e4>
   12bfc:	00812583          	lw	a1,8(sp)
   12c00:	0a010613          	addi	a2,sp,160
   12c04:	00098513          	mv	a0,s3
   12c08:	04612823          	sw	t1,80(sp)
   12c0c:	308070ef          	jal	ra,19f14 <__sprint_r>
   12c10:	00050463          	beqz	a0,12c18 <_vfprintf_r+0x26d8>
   12c14:	dd9fd06f          	j	109ec <_vfprintf_r+0x4ac>
   12c18:	0a812a03          	lw	s4,168(sp)
   12c1c:	05012303          	lw	t1,80(sp)
   12c20:	0ac10413          	addi	s0,sp,172
   12c24:	a35fe06f          	j	11658 <_vfprintf_r+0x1118>
   12c28:	00900713          	li	a4,9
   12c2c:	95b76863          	bltu	a4,s11,11d7c <_vfprintf_r+0x183c>
   12c30:	994ff06f          	j	11dc4 <_vfprintf_r+0x1884>
   12c34:	00812583          	lw	a1,8(sp)
   12c38:	0a010613          	addi	a2,sp,160
   12c3c:	00098513          	mv	a0,s3
   12c40:	00612c23          	sw	t1,24(sp)
   12c44:	2d0070ef          	jal	ra,19f14 <__sprint_r>
   12c48:	00050463          	beqz	a0,12c50 <_vfprintf_r+0x2710>
   12c4c:	da1fd06f          	j	109ec <_vfprintf_r+0x4ac>
   12c50:	07c12683          	lw	a3,124(sp)
   12c54:	0a812703          	lw	a4,168(sp)
   12c58:	01812303          	lw	t1,24(sp)
   12c5c:	0ac10413          	addi	s0,sp,172
   12c60:	a6dfe06f          	j	116cc <_vfprintf_r+0x118c>
   12c64:	02412783          	lw	a5,36(sp)
   12c68:	0017f713          	andi	a4,a5,1
   12c6c:	01812783          	lw	a5,24(sp)
   12c70:	00676733          	or	a4,a4,t1
   12c74:	44f05863          	blez	a5,130c4 <_vfprintf_r+0x2b84>
   12c78:	40071263          	bnez	a4,1307c <_vfprintf_r+0x2b3c>
   12c7c:	01812c83          	lw	s9,24(sp)
   12c80:	06600e13          	li	t3,102
   12c84:	02412783          	lw	a5,36(sp)
   12c88:	4007f713          	andi	a4,a5,1024
   12c8c:	28071c63          	bnez	a4,12f24 <_vfprintf_r+0x29e4>
   12c90:	fffcc893          	not	a7,s9
   12c94:	41f8d893          	srai	a7,a7,0x1f
   12c98:	05012b03          	lw	s6,80(sp)
   12c9c:	011cfc33          	and	s8,s9,a7
   12ca0:	c6dff06f          	j	1290c <_vfprintf_r+0x23cc>
   12ca4:	00812583          	lw	a1,8(sp)
   12ca8:	0a010613          	addi	a2,sp,160
   12cac:	00098513          	mv	a0,s3
   12cb0:	264070ef          	jal	ra,19f14 <__sprint_r>
   12cb4:	00050463          	beqz	a0,12cbc <_vfprintf_r+0x277c>
   12cb8:	d35fd06f          	j	109ec <_vfprintf_r+0x4ac>
   12cbc:	07c12683          	lw	a3,124(sp)
   12cc0:	02012783          	lw	a5,32(sp)
   12cc4:	0a812703          	lw	a4,168(sp)
   12cc8:	0ac10413          	addi	s0,sp,172
   12ccc:	40d786b3          	sub	a3,a5,a3
   12cd0:	a3dfe06f          	j	1170c <_vfprintf_r+0x11cc>
   12cd4:	00012823          	sw	zero,16(sp)
   12cd8:	0ec10b93          	addi	s7,sp,236
   12cdc:	c50ff06f          	j	1212c <_vfprintf_r+0x1bec>
   12ce0:	ff000593          	li	a1,-16
   12ce4:	40c00cb3          	neg	s9,a2
   12ce8:	0000fa17          	auipc	s4,0xf
   12cec:	ce8a0a13          	addi	s4,s4,-792 # 219d0 <zeroes.0>
   12cf0:	01000d93          	li	s11,16
   12cf4:	00700313          	li	t1,7
   12cf8:	00b64863          	blt	a2,a1,12d08 <_vfprintf_r+0x27c8>
   12cfc:	1440006f          	j	12e40 <_vfprintf_r+0x2900>
   12d00:	ff0c8c93          	addi	s9,s9,-16
   12d04:	139dde63          	bge	s11,s9,12e40 <_vfprintf_r+0x2900>
   12d08:	01070713          	addi	a4,a4,16
   12d0c:	00168693          	addi	a3,a3,1
   12d10:	01442023          	sw	s4,0(s0)
   12d14:	01b42223          	sw	s11,4(s0)
   12d18:	0ae12423          	sw	a4,168(sp)
   12d1c:	0ad12223          	sw	a3,164(sp)
   12d20:	00840413          	addi	s0,s0,8
   12d24:	fcd35ee3          	bge	t1,a3,12d00 <_vfprintf_r+0x27c0>
   12d28:	00812583          	lw	a1,8(sp)
   12d2c:	0a010613          	addi	a2,sp,160
   12d30:	00098513          	mv	a0,s3
   12d34:	1e0070ef          	jal	ra,19f14 <__sprint_r>
   12d38:	00050463          	beqz	a0,12d40 <_vfprintf_r+0x2800>
   12d3c:	cb1fd06f          	j	109ec <_vfprintf_r+0x4ac>
   12d40:	0a812703          	lw	a4,168(sp)
   12d44:	0a412683          	lw	a3,164(sp)
   12d48:	0ac10413          	addi	s0,sp,172
   12d4c:	00700313          	li	t1,7
   12d50:	fb1ff06f          	j	12d00 <_vfprintf_r+0x27c0>
   12d54:	019b8c33          	add	s8,s7,s9
   12d58:	04700a13          	li	s4,71
   12d5c:	a4cff06f          	j	11fa8 <_vfprintf_r+0x1a68>
   12d60:	02012783          	lw	a5,32(sp)
   12d64:	03412703          	lw	a4,52(sp)
   12d68:	06700e13          	li	t3,103
   12d6c:	00e78cb3          	add	s9,a5,a4
   12d70:	01812783          	lw	a5,24(sp)
   12d74:	f0f048e3          	bgtz	a5,12c84 <_vfprintf_r+0x2744>
   12d78:	40fc86b3          	sub	a3,s9,a5
   12d7c:	00168c93          	addi	s9,a3,1
   12d80:	fffcc893          	not	a7,s9
   12d84:	41f8d893          	srai	a7,a7,0x1f
   12d88:	05012b03          	lw	s6,80(sp)
   12d8c:	011cfc33          	and	s8,s9,a7
   12d90:	b7dff06f          	j	1290c <_vfprintf_r+0x23cc>
   12d94:	00812783          	lw	a5,8(sp)
   12d98:	0647a783          	lw	a5,100(a5)
   12d9c:	0017f793          	andi	a5,a5,1
   12da0:	02079063          	bnez	a5,12dc0 <_vfprintf_r+0x2880>
   12da4:	00812783          	lw	a5,8(sp)
   12da8:	00c7d783          	lhu	a5,12(a5)
   12dac:	2007f793          	andi	a5,a5,512
   12db0:	00079863          	bnez	a5,12dc0 <_vfprintf_r+0x2880>
   12db4:	00812783          	lw	a5,8(sp)
   12db8:	0587a503          	lw	a0,88(a5)
   12dbc:	4f5030ef          	jal	ra,16ab0 <__retarget_lock_release_recursive>
   12dc0:	fff00793          	li	a5,-1
   12dc4:	00f12623          	sw	a5,12(sp)
   12dc8:	c5dfd06f          	j	10a24 <_vfprintf_r+0x4e4>
   12dcc:	000b0613          	mv	a2,s6
   12dd0:	a2cfe06f          	j	10ffc <_vfprintf_r+0xabc>
   12dd4:	01812783          	lw	a5,24(sp)
   12dd8:	00f84583          	lbu	a1,15(a6)
   12ddc:	000a0693          	mv	a3,s4
   12de0:	08f12c23          	sw	a5,152(sp)
   12de4:	fffa4603          	lbu	a2,-1(s4)
   12de8:	02b61063          	bne	a2,a1,12e08 <_vfprintf_r+0x28c8>
   12dec:	03000513          	li	a0,48
   12df0:	fea68fa3          	sb	a0,-1(a3)
   12df4:	09812683          	lw	a3,152(sp)
   12df8:	fff68793          	addi	a5,a3,-1
   12dfc:	08f12c23          	sw	a5,152(sp)
   12e00:	fff6c603          	lbu	a2,-1(a3)
   12e04:	fec586e3          	beq	a1,a2,12df0 <_vfprintf_r+0x28b0>
   12e08:	00160593          	addi	a1,a2,1
   12e0c:	03900513          	li	a0,57
   12e10:	0ff5f593          	zext.b	a1,a1
   12e14:	02a60063          	beq	a2,a0,12e34 <_vfprintf_r+0x28f4>
   12e18:	feb68fa3          	sb	a1,-1(a3)
   12e1c:	000a0b13          	mv	s6,s4
   12e20:	a21ff06f          	j	12840 <_vfprintf_r+0x2300>
   12e24:	00030463          	beqz	t1,12e2c <_vfprintf_r+0x28ec>
   12e28:	874ff06f          	j	11e9c <_vfprintf_r+0x195c>
   12e2c:	00100313          	li	t1,1
   12e30:	86cff06f          	j	11e9c <_vfprintf_r+0x195c>
   12e34:	00a84583          	lbu	a1,10(a6)
   12e38:	feb68fa3          	sb	a1,-1(a3)
   12e3c:	fe1ff06f          	j	12e1c <_vfprintf_r+0x28dc>
   12e40:	01970733          	add	a4,a4,s9
   12e44:	00168693          	addi	a3,a3,1
   12e48:	01442023          	sw	s4,0(s0)
   12e4c:	01942223          	sw	s9,4(s0)
   12e50:	0ae12423          	sw	a4,168(sp)
   12e54:	0ad12223          	sw	a3,164(sp)
   12e58:	00700613          	li	a2,7
   12e5c:	00d64463          	blt	a2,a3,12e64 <_vfprintf_r+0x2924>
   12e60:	ba9fe06f          	j	11a08 <_vfprintf_r+0x14c8>
   12e64:	00812583          	lw	a1,8(sp)
   12e68:	0a010613          	addi	a2,sp,160
   12e6c:	00098513          	mv	a0,s3
   12e70:	0a4070ef          	jal	ra,19f14 <__sprint_r>
   12e74:	00050463          	beqz	a0,12e7c <_vfprintf_r+0x293c>
   12e78:	b75fd06f          	j	109ec <_vfprintf_r+0x4ac>
   12e7c:	0a812703          	lw	a4,168(sp)
   12e80:	0a412683          	lw	a3,164(sp)
   12e84:	0ac10413          	addi	s0,sp,172
   12e88:	c2cff06f          	j	122b4 <_vfprintf_r+0x1d74>
   12e8c:	00812703          	lw	a4,8(sp)
   12e90:	00c71783          	lh	a5,12(a4)
   12e94:	0407e793          	ori	a5,a5,64
   12e98:	00f71623          	sh	a5,12(a4)
   12e9c:	b6dfd06f          	j	10a08 <_vfprintf_r+0x4c8>
   12ea0:	08a10693          	addi	a3,sp,138
   12ea4:	00059863          	bnez	a1,12eb4 <_vfprintf_r+0x2974>
   12ea8:	03000693          	li	a3,48
   12eac:	08d10523          	sb	a3,138(sp)
   12eb0:	08b10693          	addi	a3,sp,139
   12eb4:	15010793          	addi	a5,sp,336
   12eb8:	40f68633          	sub	a2,a3,a5
   12ebc:	030b0713          	addi	a4,s6,48
   12ec0:	0c960793          	addi	a5,a2,201
   12ec4:	00e68023          	sb	a4,0(a3)
   12ec8:	04f12223          	sw	a5,68(sp)
   12ecc:	e80ff06f          	j	1254c <_vfprintf_r+0x200c>
   12ed0:	00098793          	mv	a5,s3
   12ed4:	00912c23          	sw	s1,24(sp)
   12ed8:	00040813          	mv	a6,s0
   12edc:	000c8993          	mv	s3,s9
   12ee0:	000b8413          	mv	s0,s7
   12ee4:	02812e03          	lw	t3,40(sp)
   12ee8:	000d8b93          	mv	s7,s11
   12eec:	05c12303          	lw	t1,92(sp)
   12ef0:	000a0d93          	mv	s11,s4
   12ef4:	02012483          	lw	s1,32(sp)
   12ef8:	00090a13          	mv	s4,s2
   12efc:	00078c93          	mv	s9,a5
   12f00:	05812903          	lw	s2,88(sp)
   12f04:	8a5ff06f          	j	127a8 <_vfprintf_r+0x2268>
   12f08:	02412783          	lw	a5,36(sp)
   12f0c:	0017f713          	andi	a4,a5,1
   12f10:	e4070c63          	beqz	a4,12568 <_vfprintf_r+0x2028>
   12f14:	e4cff06f          	j	12560 <_vfprintf_r+0x2020>
   12f18:	00600313          	li	t1,6
   12f1c:	f81fe06f          	j	11e9c <_vfprintf_r+0x195c>
   12f20:	06700e13          	li	t3,103
   12f24:	04012683          	lw	a3,64(sp)
   12f28:	0ff00613          	li	a2,255
   12f2c:	0006c703          	lbu	a4,0(a3)
   12f30:	1ec70463          	beq	a4,a2,13118 <_vfprintf_r+0x2bd8>
   12f34:	01812783          	lw	a5,24(sp)
   12f38:	00000513          	li	a0,0
   12f3c:	00000593          	li	a1,0
   12f40:	00f75e63          	bge	a4,a5,12f5c <_vfprintf_r+0x2a1c>
   12f44:	40e787b3          	sub	a5,a5,a4
   12f48:	0016c703          	lbu	a4,1(a3)
   12f4c:	04070a63          	beqz	a4,12fa0 <_vfprintf_r+0x2a60>
   12f50:	00158593          	addi	a1,a1,1
   12f54:	00168693          	addi	a3,a3,1
   12f58:	fec714e3          	bne	a4,a2,12f40 <_vfprintf_r+0x2a00>
   12f5c:	04d12023          	sw	a3,64(sp)
   12f60:	00f12c23          	sw	a5,24(sp)
   12f64:	02b12223          	sw	a1,36(sp)
   12f68:	02a12423          	sw	a0,40(sp)
   12f6c:	02812783          	lw	a5,40(sp)
   12f70:	02412703          	lw	a4,36(sp)
   12f74:	04812583          	lw	a1,72(sp)
   12f78:	05c12c23          	sw	t3,88(sp)
   12f7c:	00e78533          	add	a0,a5,a4
   12f80:	6580e0ef          	jal	ra,215d8 <__mulsi3>
   12f84:	01950cb3          	add	s9,a0,s9
   12f88:	fffcc893          	not	a7,s9
   12f8c:	41f8d893          	srai	a7,a7,0x1f
   12f90:	05012b03          	lw	s6,80(sp)
   12f94:	05812e03          	lw	t3,88(sp)
   12f98:	011cfc33          	and	s8,s9,a7
   12f9c:	df0ff06f          	j	1258c <_vfprintf_r+0x204c>
   12fa0:	0006c703          	lbu	a4,0(a3)
   12fa4:	00150513          	addi	a0,a0,1
   12fa8:	fb1ff06f          	j	12f58 <_vfprintf_r+0x2a18>
   12fac:	02c12703          	lw	a4,44(sp)
   12fb0:	000d8593          	mv	a1,s11
   12fb4:	07c10613          	addi	a2,sp,124
   12fb8:	00070513          	mv	a0,a4
   12fbc:	02612023          	sw	t1,32(sp)
   12fc0:	01c12c23          	sw	t3,24(sp)
   12fc4:	338060ef          	jal	ra,192fc <frexp>
   12fc8:	00011717          	auipc	a4,0x11
   12fcc:	ac070713          	addi	a4,a4,-1344 # 23a88 <__SDATA_BEGIN__+0x8>
   12fd0:	00072603          	lw	a2,0(a4)
   12fd4:	00472683          	lw	a3,4(a4)
   12fd8:	7190c0ef          	jal	ra,1fef0 <__muldf3>
   12fdc:	00000613          	li	a2,0
   12fe0:	00000693          	li	a3,0
   12fe4:	00050c93          	mv	s9,a0
   12fe8:	00058d93          	mv	s11,a1
   12fec:	4750c0ef          	jal	ra,1fc60 <__eqdf2>
   12ff0:	01812e03          	lw	t3,24(sp)
   12ff4:	02012303          	lw	t1,32(sp)
   12ff8:	0000e817          	auipc	a6,0xe
   12ffc:	7a080813          	addi	a6,a6,1952 # 21798 <__clzsi2+0xe8>
   13000:	ea051663          	bnez	a0,126ac <_vfprintf_r+0x216c>
   13004:	e88ff06f          	j	1268c <_vfprintf_r+0x214c>
   13008:	00040313          	mv	t1,s0
   1300c:	01012483          	lw	s1,16(sp)
   13010:	000b8413          	mv	s0,s7
   13014:	01412e03          	lw	t3,20(sp)
   13018:	000c0b93          	mv	s7,s8
   1301c:	00030c93          	mv	s9,t1
   13020:	8e0ff06f          	j	12100 <_vfprintf_r+0x1bc0>
   13024:	03012783          	lw	a5,48(sp)
   13028:	0607c463          	bltz	a5,13090 <_vfprintf_r+0x2b50>
   1302c:	07714603          	lbu	a2,119(sp)
   13030:	04700713          	li	a4,71
   13034:	0000eb97          	auipc	s7,0xe
   13038:	75cb8b93          	addi	s7,s7,1884 # 21790 <__clzsi2+0xe0>
   1303c:	01c74463          	blt	a4,t3,13044 <_vfprintf_r+0x2b04>
   13040:	b0dfd06f          	j	10b4c <_vfprintf_r+0x60c>
   13044:	0000eb97          	auipc	s7,0xe
   13048:	750b8b93          	addi	s7,s7,1872 # 21794 <__clzsi2+0xe4>
   1304c:	b01fd06f          	j	10b4c <_vfprintf_r+0x60c>
   13050:	07714603          	lbu	a2,119(sp)
   13054:	01b12a23          	sw	s11,20(sp)
   13058:	02012423          	sw	zero,40(sp)
   1305c:	02012223          	sw	zero,36(sp)
   13060:	00030c13          	mv	s8,t1
   13064:	00030c93          	mv	s9,t1
   13068:	07300e13          	li	t3,115
   1306c:	00000313          	li	t1,0
   13070:	00061463          	bnez	a2,13078 <_vfprintf_r+0x2b38>
   13074:	efcfd06f          	j	10770 <_vfprintf_r+0x230>
   13078:	af9fd06f          	j	10b70 <_vfprintf_r+0x630>
   1307c:	03412703          	lw	a4,52(sp)
   13080:	06600e13          	li	t3,102
   13084:	00e786b3          	add	a3,a5,a4
   13088:	00668cb3          	add	s9,a3,t1
   1308c:	bf9ff06f          	j	12c84 <_vfprintf_r+0x2744>
   13090:	02d00793          	li	a5,45
   13094:	06f10ba3          	sb	a5,119(sp)
   13098:	02d00613          	li	a2,45
   1309c:	f95ff06f          	j	13030 <_vfprintf_r+0x2af0>
   130a0:	01412783          	lw	a5,20(sp)
   130a4:	0007aa03          	lw	s4,0(a5)
   130a8:	00478793          	addi	a5,a5,4
   130ac:	000a5463          	bgez	s4,130b4 <_vfprintf_r+0x2b74>
   130b0:	fff00a13          	li	s4,-1
   130b4:	0014ce03          	lbu	t3,1(s1)
   130b8:	00f12a23          	sw	a5,20(sp)
   130bc:	00070493          	mv	s1,a4
   130c0:	e24fd06f          	j	106e4 <_vfprintf_r+0x1a4>
   130c4:	00071c63          	bnez	a4,130dc <_vfprintf_r+0x2b9c>
   130c8:	05012b03          	lw	s6,80(sp)
   130cc:	00100c13          	li	s8,1
   130d0:	06600e13          	li	t3,102
   130d4:	00100c93          	li	s9,1
   130d8:	835ff06f          	j	1290c <_vfprintf_r+0x23cc>
   130dc:	03412783          	lw	a5,52(sp)
   130e0:	05012b03          	lw	s6,80(sp)
   130e4:	06600e13          	li	t3,102
   130e8:	00178693          	addi	a3,a5,1
   130ec:	00668cb3          	add	s9,a3,t1
   130f0:	fffcc893          	not	a7,s9
   130f4:	41f8d893          	srai	a7,a7,0x1f
   130f8:	011cfc33          	and	s8,s9,a7
   130fc:	811ff06f          	j	1290c <_vfprintf_r+0x23cc>
   13100:	00200793          	li	a5,2
   13104:	04f12223          	sw	a5,68(sp)
   13108:	c44ff06f          	j	1254c <_vfprintf_r+0x200c>
   1310c:	07000693          	li	a3,112
   13110:	00100593          	li	a1,1
   13114:	b64ff06f          	j	12478 <_vfprintf_r+0x1f38>
   13118:	02012423          	sw	zero,40(sp)
   1311c:	02012223          	sw	zero,36(sp)
   13120:	e4dff06f          	j	12f6c <_vfprintf_r+0x2a2c>
   13124:	00812703          	lw	a4,8(sp)
   13128:	01012f03          	lw	t5,16(sp)
   1312c:	00c75783          	lhu	a5,12(a4)
   13130:	0407e793          	ori	a5,a5,64
   13134:	00f71623          	sh	a5,12(a4)
   13138:	8b9fd06f          	j	109f0 <_vfprintf_r+0x4b0>

0001313c <vfprintf>:
   1313c:	00060693          	mv	a3,a2
   13140:	00058613          	mv	a2,a1
   13144:	00050593          	mv	a1,a0
   13148:	2301a503          	lw	a0,560(gp) # 23af0 <_impure_ptr>
   1314c:	bf4fd06f          	j	10540 <_vfprintf_r>

00013150 <__sbprintf>:
   13150:	00c59783          	lh	a5,12(a1)
   13154:	00e5d703          	lhu	a4,14(a1)
   13158:	b7010113          	addi	sp,sp,-1168
   1315c:	ffd7f793          	andi	a5,a5,-3
   13160:	01079793          	slli	a5,a5,0x10
   13164:	0645a883          	lw	a7,100(a1)
   13168:	01c5a803          	lw	a6,28(a1)
   1316c:	48812423          	sw	s0,1160(sp)
   13170:	01071713          	slli	a4,a4,0x10
   13174:	00058413          	mv	s0,a1
   13178:	0107d793          	srli	a5,a5,0x10
   1317c:	0245a583          	lw	a1,36(a1)
   13180:	00e7e7b3          	or	a5,a5,a4
   13184:	49212023          	sw	s2,1152(sp)
   13188:	40000713          	li	a4,1024
   1318c:	00050913          	mv	s2,a0
   13190:	00f12a23          	sw	a5,20(sp)
   13194:	06010513          	addi	a0,sp,96
   13198:	07010793          	addi	a5,sp,112
   1319c:	48112623          	sw	ra,1164(sp)
   131a0:	48912223          	sw	s1,1156(sp)
   131a4:	47312e23          	sw	s3,1148(sp)
   131a8:	00060493          	mv	s1,a2
   131ac:	00068993          	mv	s3,a3
   131b0:	07112623          	sw	a7,108(sp)
   131b4:	03012223          	sw	a6,36(sp)
   131b8:	02b12623          	sw	a1,44(sp)
   131bc:	00f12423          	sw	a5,8(sp)
   131c0:	00f12c23          	sw	a5,24(sp)
   131c4:	00e12823          	sw	a4,16(sp)
   131c8:	00e12e23          	sw	a4,28(sp)
   131cc:	02012023          	sw	zero,32(sp)
   131d0:	0b9030ef          	jal	ra,16a88 <__retarget_lock_init_recursive>
   131d4:	00048613          	mv	a2,s1
   131d8:	00098693          	mv	a3,s3
   131dc:	00810593          	addi	a1,sp,8
   131e0:	00090513          	mv	a0,s2
   131e4:	b5cfd0ef          	jal	ra,10540 <_vfprintf_r>
   131e8:	00050493          	mv	s1,a0
   131ec:	04055263          	bgez	a0,13230 <__sbprintf+0xe0>
   131f0:	01415783          	lhu	a5,20(sp)
   131f4:	0407f793          	andi	a5,a5,64
   131f8:	00078863          	beqz	a5,13208 <__sbprintf+0xb8>
   131fc:	00c45783          	lhu	a5,12(s0)
   13200:	0407e793          	ori	a5,a5,64
   13204:	00f41623          	sh	a5,12(s0)
   13208:	06012503          	lw	a0,96(sp)
   1320c:	085030ef          	jal	ra,16a90 <__retarget_lock_close_recursive>
   13210:	48c12083          	lw	ra,1164(sp)
   13214:	48812403          	lw	s0,1160(sp)
   13218:	48012903          	lw	s2,1152(sp)
   1321c:	47c12983          	lw	s3,1148(sp)
   13220:	00048513          	mv	a0,s1
   13224:	48412483          	lw	s1,1156(sp)
   13228:	49010113          	addi	sp,sp,1168
   1322c:	00008067          	ret
   13230:	00810593          	addi	a1,sp,8
   13234:	00090513          	mv	a0,s2
   13238:	020020ef          	jal	ra,15258 <_fflush_r>
   1323c:	fa050ae3          	beqz	a0,131f0 <__sbprintf+0xa0>
   13240:	fff00493          	li	s1,-1
   13244:	fadff06f          	j	131f0 <__sbprintf+0xa0>

00013248 <_wcrtomb_r>:
   13248:	fe010113          	addi	sp,sp,-32
   1324c:	00812c23          	sw	s0,24(sp)
   13250:	00912a23          	sw	s1,20(sp)
   13254:	00112e23          	sw	ra,28(sp)
   13258:	00050493          	mv	s1,a0
   1325c:	11450413          	addi	s0,a0,276
   13260:	00068463          	beqz	a3,13268 <_wcrtomb_r+0x20>
   13264:	00068413          	mv	s0,a3
   13268:	d081a783          	lw	a5,-760(gp) # 235c8 <__global_locale+0xe0>
   1326c:	00040693          	mv	a3,s0
   13270:	02058463          	beqz	a1,13298 <_wcrtomb_r+0x50>
   13274:	00048513          	mv	a0,s1
   13278:	000780e7          	jalr	a5
   1327c:	fff00793          	li	a5,-1
   13280:	02f50863          	beq	a0,a5,132b0 <_wcrtomb_r+0x68>
   13284:	01c12083          	lw	ra,28(sp)
   13288:	01812403          	lw	s0,24(sp)
   1328c:	01412483          	lw	s1,20(sp)
   13290:	02010113          	addi	sp,sp,32
   13294:	00008067          	ret
   13298:	00000613          	li	a2,0
   1329c:	00410593          	addi	a1,sp,4
   132a0:	00048513          	mv	a0,s1
   132a4:	000780e7          	jalr	a5
   132a8:	fff00793          	li	a5,-1
   132ac:	fcf51ce3          	bne	a0,a5,13284 <_wcrtomb_r+0x3c>
   132b0:	00042023          	sw	zero,0(s0)
   132b4:	01c12083          	lw	ra,28(sp)
   132b8:	01812403          	lw	s0,24(sp)
   132bc:	08a00793          	li	a5,138
   132c0:	00f4a023          	sw	a5,0(s1)
   132c4:	01412483          	lw	s1,20(sp)
   132c8:	02010113          	addi	sp,sp,32
   132cc:	00008067          	ret

000132d0 <wcrtomb>:
   132d0:	fe010113          	addi	sp,sp,-32
   132d4:	00812c23          	sw	s0,24(sp)
   132d8:	00912a23          	sw	s1,20(sp)
   132dc:	00060413          	mv	s0,a2
   132e0:	00112e23          	sw	ra,28(sp)
   132e4:	00058613          	mv	a2,a1
   132e8:	2301a483          	lw	s1,560(gp) # 23af0 <_impure_ptr>
   132ec:	02040c63          	beqz	s0,13324 <wcrtomb+0x54>
   132f0:	d081a783          	lw	a5,-760(gp) # 235c8 <__global_locale+0xe0>
   132f4:	00040693          	mv	a3,s0
   132f8:	02050e63          	beqz	a0,13334 <wcrtomb+0x64>
   132fc:	00050593          	mv	a1,a0
   13300:	00048513          	mv	a0,s1
   13304:	000780e7          	jalr	a5
   13308:	fff00793          	li	a5,-1
   1330c:	04f50063          	beq	a0,a5,1334c <wcrtomb+0x7c>
   13310:	01c12083          	lw	ra,28(sp)
   13314:	01812403          	lw	s0,24(sp)
   13318:	01412483          	lw	s1,20(sp)
   1331c:	02010113          	addi	sp,sp,32
   13320:	00008067          	ret
   13324:	11448413          	addi	s0,s1,276
   13328:	d081a783          	lw	a5,-760(gp) # 235c8 <__global_locale+0xe0>
   1332c:	00040693          	mv	a3,s0
   13330:	fc0516e3          	bnez	a0,132fc <wcrtomb+0x2c>
   13334:	00000613          	li	a2,0
   13338:	00410593          	addi	a1,sp,4
   1333c:	00048513          	mv	a0,s1
   13340:	000780e7          	jalr	a5
   13344:	fff00793          	li	a5,-1
   13348:	fcf514e3          	bne	a0,a5,13310 <wcrtomb+0x40>
   1334c:	00042023          	sw	zero,0(s0)
   13350:	01c12083          	lw	ra,28(sp)
   13354:	01812403          	lw	s0,24(sp)
   13358:	08a00793          	li	a5,138
   1335c:	00f4a023          	sw	a5,0(s1)
   13360:	01412483          	lw	s1,20(sp)
   13364:	02010113          	addi	sp,sp,32
   13368:	00008067          	ret

0001336c <_wcsrtombs_r>:
   1336c:	00070793          	mv	a5,a4
   13370:	00068713          	mv	a4,a3
   13374:	fff00693          	li	a3,-1
   13378:	5f00806f          	j	1b968 <_wcsnrtombs_r>

0001337c <wcsrtombs>:
   1337c:	00060713          	mv	a4,a2
   13380:	00068793          	mv	a5,a3
   13384:	00058613          	mv	a2,a1
   13388:	fff00693          	li	a3,-1
   1338c:	00050593          	mv	a1,a0
   13390:	2301a503          	lw	a0,560(gp) # 23af0 <_impure_ptr>
   13394:	5d40806f          	j	1b968 <_wcsnrtombs_r>

00013398 <__swsetup_r>:
   13398:	ff010113          	addi	sp,sp,-16
   1339c:	00812423          	sw	s0,8(sp)
   133a0:	00912223          	sw	s1,4(sp)
   133a4:	00112623          	sw	ra,12(sp)
   133a8:	2301a783          	lw	a5,560(gp) # 23af0 <_impure_ptr>
   133ac:	00050493          	mv	s1,a0
   133b0:	00058413          	mv	s0,a1
   133b4:	00078663          	beqz	a5,133c0 <__swsetup_r+0x28>
   133b8:	0387a703          	lw	a4,56(a5)
   133bc:	08070063          	beqz	a4,1343c <__swsetup_r+0xa4>
   133c0:	00c41783          	lh	a5,12(s0)
   133c4:	0087f713          	andi	a4,a5,8
   133c8:	08070463          	beqz	a4,13450 <__swsetup_r+0xb8>
   133cc:	01042703          	lw	a4,16(s0)
   133d0:	0a070063          	beqz	a4,13470 <__swsetup_r+0xd8>
   133d4:	0017f693          	andi	a3,a5,1
   133d8:	02068863          	beqz	a3,13408 <__swsetup_r+0x70>
   133dc:	01442683          	lw	a3,20(s0)
   133e0:	00042423          	sw	zero,8(s0)
   133e4:	00000513          	li	a0,0
   133e8:	40d006b3          	neg	a3,a3
   133ec:	00d42c23          	sw	a3,24(s0)
   133f0:	02070a63          	beqz	a4,13424 <__swsetup_r+0x8c>
   133f4:	00c12083          	lw	ra,12(sp)
   133f8:	00812403          	lw	s0,8(sp)
   133fc:	00412483          	lw	s1,4(sp)
   13400:	01010113          	addi	sp,sp,16
   13404:	00008067          	ret
   13408:	0027f693          	andi	a3,a5,2
   1340c:	00000613          	li	a2,0
   13410:	00069463          	bnez	a3,13418 <__swsetup_r+0x80>
   13414:	01442603          	lw	a2,20(s0)
   13418:	00c42423          	sw	a2,8(s0)
   1341c:	00000513          	li	a0,0
   13420:	fc071ae3          	bnez	a4,133f4 <__swsetup_r+0x5c>
   13424:	0807f713          	andi	a4,a5,128
   13428:	fc0706e3          	beqz	a4,133f4 <__swsetup_r+0x5c>
   1342c:	0407e793          	ori	a5,a5,64
   13430:	00f41623          	sh	a5,12(s0)
   13434:	fff00513          	li	a0,-1
   13438:	fbdff06f          	j	133f4 <__swsetup_r+0x5c>
   1343c:	00078513          	mv	a0,a5
   13440:	0d0020ef          	jal	ra,15510 <__sinit>
   13444:	00c41783          	lh	a5,12(s0)
   13448:	0087f713          	andi	a4,a5,8
   1344c:	f80710e3          	bnez	a4,133cc <__swsetup_r+0x34>
   13450:	0107f713          	andi	a4,a5,16
   13454:	06070a63          	beqz	a4,134c8 <__swsetup_r+0x130>
   13458:	0047f713          	andi	a4,a5,4
   1345c:	02071c63          	bnez	a4,13494 <__swsetup_r+0xfc>
   13460:	01042703          	lw	a4,16(s0)
   13464:	0087e793          	ori	a5,a5,8
   13468:	00f41623          	sh	a5,12(s0)
   1346c:	f60714e3          	bnez	a4,133d4 <__swsetup_r+0x3c>
   13470:	2807f693          	andi	a3,a5,640
   13474:	20000613          	li	a2,512
   13478:	f4c68ee3          	beq	a3,a2,133d4 <__swsetup_r+0x3c>
   1347c:	00040593          	mv	a1,s0
   13480:	00048513          	mv	a0,s1
   13484:	630030ef          	jal	ra,16ab4 <__smakebuf_r>
   13488:	00c41783          	lh	a5,12(s0)
   1348c:	01042703          	lw	a4,16(s0)
   13490:	f45ff06f          	j	133d4 <__swsetup_r+0x3c>
   13494:	03042583          	lw	a1,48(s0)
   13498:	00058e63          	beqz	a1,134b4 <__swsetup_r+0x11c>
   1349c:	04040713          	addi	a4,s0,64
   134a0:	00e58863          	beq	a1,a4,134b0 <__swsetup_r+0x118>
   134a4:	00048513          	mv	a0,s1
   134a8:	4fc020ef          	jal	ra,159a4 <_free_r>
   134ac:	00c41783          	lh	a5,12(s0)
   134b0:	02042823          	sw	zero,48(s0)
   134b4:	01042703          	lw	a4,16(s0)
   134b8:	fdb7f793          	andi	a5,a5,-37
   134bc:	00042223          	sw	zero,4(s0)
   134c0:	00e42023          	sw	a4,0(s0)
   134c4:	fa1ff06f          	j	13464 <__swsetup_r+0xcc>
   134c8:	00900713          	li	a4,9
   134cc:	00e4a023          	sw	a4,0(s1)
   134d0:	0407e793          	ori	a5,a5,64
   134d4:	f5dff06f          	j	13430 <__swsetup_r+0x98>

000134d8 <__register_exitproc>:
   134d8:	fe010113          	addi	sp,sp,-32
   134dc:	01212823          	sw	s2,16(sp)
   134e0:	23418913          	addi	s2,gp,564 # 23af4 <__atexit_recursive_mutex>
   134e4:	00812c23          	sw	s0,24(sp)
   134e8:	00050413          	mv	s0,a0
   134ec:	00092503          	lw	a0,0(s2)
   134f0:	00912a23          	sw	s1,20(sp)
   134f4:	01312623          	sw	s3,12(sp)
   134f8:	01412423          	sw	s4,8(sp)
   134fc:	00112e23          	sw	ra,28(sp)
   13500:	00058493          	mv	s1,a1
   13504:	00060a13          	mv	s4,a2
   13508:	00068993          	mv	s3,a3
   1350c:	58c030ef          	jal	ra,16a98 <__retarget_lock_acquire_recursive>
   13510:	2281a703          	lw	a4,552(gp) # 23ae8 <_global_impure_ptr>
   13514:	14872783          	lw	a5,328(a4)
   13518:	08078663          	beqz	a5,135a4 <__register_exitproc+0xcc>
   1351c:	0047a703          	lw	a4,4(a5)
   13520:	01f00593          	li	a1,31
   13524:	00092503          	lw	a0,0(s2)
   13528:	08e5c463          	blt	a1,a4,135b0 <__register_exitproc+0xd8>
   1352c:	00271593          	slli	a1,a4,0x2
   13530:	02041e63          	bnez	s0,1356c <__register_exitproc+0x94>
   13534:	00170713          	addi	a4,a4,1
   13538:	00e7a223          	sw	a4,4(a5)
   1353c:	00b787b3          	add	a5,a5,a1
   13540:	0097a423          	sw	s1,8(a5)
   13544:	56c030ef          	jal	ra,16ab0 <__retarget_lock_release_recursive>
   13548:	00000513          	li	a0,0
   1354c:	01c12083          	lw	ra,28(sp)
   13550:	01812403          	lw	s0,24(sp)
   13554:	01412483          	lw	s1,20(sp)
   13558:	01012903          	lw	s2,16(sp)
   1355c:	00c12983          	lw	s3,12(sp)
   13560:	00812a03          	lw	s4,8(sp)
   13564:	02010113          	addi	sp,sp,32
   13568:	00008067          	ret
   1356c:	00b78833          	add	a6,a5,a1
   13570:	09482423          	sw	s4,136(a6)
   13574:	1887a683          	lw	a3,392(a5)
   13578:	00100613          	li	a2,1
   1357c:	00e61633          	sll	a2,a2,a4
   13580:	00c6e6b3          	or	a3,a3,a2
   13584:	18d7a423          	sw	a3,392(a5)
   13588:	11382423          	sw	s3,264(a6)
   1358c:	00200693          	li	a3,2
   13590:	fad412e3          	bne	s0,a3,13534 <__register_exitproc+0x5c>
   13594:	18c7a683          	lw	a3,396(a5)
   13598:	00c6e6b3          	or	a3,a3,a2
   1359c:	18d7a623          	sw	a3,396(a5)
   135a0:	f95ff06f          	j	13534 <__register_exitproc+0x5c>
   135a4:	14c70793          	addi	a5,a4,332
   135a8:	14f72423          	sw	a5,328(a4)
   135ac:	f71ff06f          	j	1351c <__register_exitproc+0x44>
   135b0:	500030ef          	jal	ra,16ab0 <__retarget_lock_release_recursive>
   135b4:	fff00513          	li	a0,-1
   135b8:	f95ff06f          	j	1354c <__register_exitproc+0x74>

000135bc <__call_exitprocs>:
   135bc:	fd010113          	addi	sp,sp,-48
   135c0:	01712623          	sw	s7,12(sp)
   135c4:	23418b93          	addi	s7,gp,564 # 23af4 <__atexit_recursive_mutex>
   135c8:	01612823          	sw	s6,16(sp)
   135cc:	00050b13          	mv	s6,a0
   135d0:	000ba503          	lw	a0,0(s7)
   135d4:	03212023          	sw	s2,32(sp)
   135d8:	01312e23          	sw	s3,28(sp)
   135dc:	01412c23          	sw	s4,24(sp)
   135e0:	01512a23          	sw	s5,20(sp)
   135e4:	01812423          	sw	s8,8(sp)
   135e8:	02112623          	sw	ra,44(sp)
   135ec:	02812423          	sw	s0,40(sp)
   135f0:	02912223          	sw	s1,36(sp)
   135f4:	01912223          	sw	s9,4(sp)
   135f8:	00058c13          	mv	s8,a1
   135fc:	49c030ef          	jal	ra,16a98 <__retarget_lock_acquire_recursive>
   13600:	2281aa03          	lw	s4,552(gp) # 23ae8 <_global_impure_ptr>
   13604:	148a2903          	lw	s2,328(s4)
   13608:	00100a93          	li	s5,1
   1360c:	fff00993          	li	s3,-1
   13610:	02090863          	beqz	s2,13640 <__call_exitprocs+0x84>
   13614:	00492483          	lw	s1,4(s2)
   13618:	fff48413          	addi	s0,s1,-1
   1361c:	02044263          	bltz	s0,13640 <__call_exitprocs+0x84>
   13620:	00249493          	slli	s1,s1,0x2
   13624:	009904b3          	add	s1,s2,s1
   13628:	040c0863          	beqz	s8,13678 <__call_exitprocs+0xbc>
   1362c:	1044a783          	lw	a5,260(s1)
   13630:	05878463          	beq	a5,s8,13678 <__call_exitprocs+0xbc>
   13634:	fff40413          	addi	s0,s0,-1
   13638:	ffc48493          	addi	s1,s1,-4
   1363c:	ff3416e3          	bne	s0,s3,13628 <__call_exitprocs+0x6c>
   13640:	02812403          	lw	s0,40(sp)
   13644:	000ba503          	lw	a0,0(s7)
   13648:	02c12083          	lw	ra,44(sp)
   1364c:	02412483          	lw	s1,36(sp)
   13650:	02012903          	lw	s2,32(sp)
   13654:	01c12983          	lw	s3,28(sp)
   13658:	01812a03          	lw	s4,24(sp)
   1365c:	01412a83          	lw	s5,20(sp)
   13660:	01012b03          	lw	s6,16(sp)
   13664:	00c12b83          	lw	s7,12(sp)
   13668:	00812c03          	lw	s8,8(sp)
   1366c:	00412c83          	lw	s9,4(sp)
   13670:	03010113          	addi	sp,sp,48
   13674:	43c0306f          	j	16ab0 <__retarget_lock_release_recursive>
   13678:	00492783          	lw	a5,4(s2)
   1367c:	0044a683          	lw	a3,4(s1)
   13680:	fff78793          	addi	a5,a5,-1
   13684:	04878e63          	beq	a5,s0,136e0 <__call_exitprocs+0x124>
   13688:	0004a223          	sw	zero,4(s1)
   1368c:	fa0684e3          	beqz	a3,13634 <__call_exitprocs+0x78>
   13690:	18892783          	lw	a5,392(s2)
   13694:	008a9733          	sll	a4,s5,s0
   13698:	00492c83          	lw	s9,4(s2)
   1369c:	00f777b3          	and	a5,a4,a5
   136a0:	02079263          	bnez	a5,136c4 <__call_exitprocs+0x108>
   136a4:	000680e7          	jalr	a3
   136a8:	00492703          	lw	a4,4(s2)
   136ac:	148a2783          	lw	a5,328(s4)
   136b0:	01971463          	bne	a4,s9,136b8 <__call_exitprocs+0xfc>
   136b4:	f92780e3          	beq	a5,s2,13634 <__call_exitprocs+0x78>
   136b8:	f80784e3          	beqz	a5,13640 <__call_exitprocs+0x84>
   136bc:	00078913          	mv	s2,a5
   136c0:	f55ff06f          	j	13614 <__call_exitprocs+0x58>
   136c4:	18c92783          	lw	a5,396(s2)
   136c8:	0844a583          	lw	a1,132(s1)
   136cc:	00f77733          	and	a4,a4,a5
   136d0:	00071c63          	bnez	a4,136e8 <__call_exitprocs+0x12c>
   136d4:	000b0513          	mv	a0,s6
   136d8:	000680e7          	jalr	a3
   136dc:	fcdff06f          	j	136a8 <__call_exitprocs+0xec>
   136e0:	00892223          	sw	s0,4(s2)
   136e4:	fa9ff06f          	j	1368c <__call_exitprocs+0xd0>
   136e8:	00058513          	mv	a0,a1
   136ec:	000680e7          	jalr	a3
   136f0:	fb9ff06f          	j	136a8 <__call_exitprocs+0xec>

000136f4 <quorem>:
   136f4:	fb010113          	addi	sp,sp,-80
   136f8:	04912223          	sw	s1,68(sp)
   136fc:	01052783          	lw	a5,16(a0)
   13700:	0105a483          	lw	s1,16(a1)
   13704:	04112623          	sw	ra,76(sp)
   13708:	04812423          	sw	s0,72(sp)
   1370c:	05212023          	sw	s2,64(sp)
   13710:	03312e23          	sw	s3,60(sp)
   13714:	03412c23          	sw	s4,56(sp)
   13718:	03512a23          	sw	s5,52(sp)
   1371c:	03612823          	sw	s6,48(sp)
   13720:	03712623          	sw	s7,44(sp)
   13724:	03812423          	sw	s8,40(sp)
   13728:	03912223          	sw	s9,36(sp)
   1372c:	03a12023          	sw	s10,32(sp)
   13730:	01b12e23          	sw	s11,28(sp)
   13734:	00b12423          	sw	a1,8(sp)
   13738:	1e97c463          	blt	a5,s1,13920 <quorem+0x22c>
   1373c:	fff48493          	addi	s1,s1,-1
   13740:	00249a93          	slli	s5,s1,0x2
   13744:	01458c13          	addi	s8,a1,20
   13748:	01450993          	addi	s3,a0,20
   1374c:	015c0933          	add	s2,s8,s5
   13750:	015987b3          	add	a5,s3,s5
   13754:	00092b83          	lw	s7,0(s2)
   13758:	0007ac83          	lw	s9,0(a5)
   1375c:	00050a13          	mv	s4,a0
   13760:	001b8b93          	addi	s7,s7,1
   13764:	000b8593          	mv	a1,s7
   13768:	000c8513          	mv	a0,s9
   1376c:	00f12623          	sw	a5,12(sp)
   13770:	6950d0ef          	jal	ra,21604 <__hidden___udivsi3>
   13774:	00050413          	mv	s0,a0
   13778:	0d7ce263          	bltu	s9,s7,1383c <quorem+0x148>
   1377c:	00010d37          	lui	s10,0x10
   13780:	000c0a93          	mv	s5,s8
   13784:	00098d93          	mv	s11,s3
   13788:	00000c93          	li	s9,0
   1378c:	00000b93          	li	s7,0
   13790:	fffd0d13          	addi	s10,s10,-1 # ffff <exit-0x95>
   13794:	000aab03          	lw	s6,0(s5)
   13798:	00040593          	mv	a1,s0
   1379c:	004d8d93          	addi	s11,s11,4
   137a0:	01ab7533          	and	a0,s6,s10
   137a4:	6350d0ef          	jal	ra,215d8 <__mulsi3>
   137a8:	00050793          	mv	a5,a0
   137ac:	00040593          	mv	a1,s0
   137b0:	010b5513          	srli	a0,s6,0x10
   137b4:	01978cb3          	add	s9,a5,s9
   137b8:	6210d0ef          	jal	ra,215d8 <__mulsi3>
   137bc:	ffcda603          	lw	a2,-4(s11)
   137c0:	01acf733          	and	a4,s9,s10
   137c4:	010cdc93          	srli	s9,s9,0x10
   137c8:	01a677b3          	and	a5,a2,s10
   137cc:	40e787b3          	sub	a5,a5,a4
   137d0:	017787b3          	add	a5,a5,s7
   137d4:	01950533          	add	a0,a0,s9
   137d8:	4107d713          	srai	a4,a5,0x10
   137dc:	01a575b3          	and	a1,a0,s10
   137e0:	01065613          	srli	a2,a2,0x10
   137e4:	40b70733          	sub	a4,a4,a1
   137e8:	00c70733          	add	a4,a4,a2
   137ec:	01a7f7b3          	and	a5,a5,s10
   137f0:	01071613          	slli	a2,a4,0x10
   137f4:	00c7e7b3          	or	a5,a5,a2
   137f8:	004a8a93          	addi	s5,s5,4
   137fc:	fefdae23          	sw	a5,-4(s11)
   13800:	01055c93          	srli	s9,a0,0x10
   13804:	41075b93          	srai	s7,a4,0x10
   13808:	f95976e3          	bgeu	s2,s5,13794 <quorem+0xa0>
   1380c:	00c12703          	lw	a4,12(sp)
   13810:	00072783          	lw	a5,0(a4)
   13814:	02079463          	bnez	a5,1383c <quorem+0x148>
   13818:	ffc70a93          	addi	s5,a4,-4
   1381c:	0159e863          	bltu	s3,s5,1382c <quorem+0x138>
   13820:	0180006f          	j	13838 <quorem+0x144>
   13824:	fff48493          	addi	s1,s1,-1
   13828:	0159f863          	bgeu	s3,s5,13838 <quorem+0x144>
   1382c:	000aa783          	lw	a5,0(s5)
   13830:	ffca8a93          	addi	s5,s5,-4
   13834:	fe0788e3          	beqz	a5,13824 <quorem+0x130>
   13838:	009a2823          	sw	s1,16(s4)
   1383c:	00812583          	lw	a1,8(sp)
   13840:	000a0513          	mv	a0,s4
   13844:	2c4050ef          	jal	ra,18b08 <__mcmp>
   13848:	08054c63          	bltz	a0,138e0 <quorem+0x1ec>
   1384c:	00010537          	lui	a0,0x10
   13850:	00098593          	mv	a1,s3
   13854:	00000713          	li	a4,0
   13858:	fff50513          	addi	a0,a0,-1 # ffff <exit-0x95>
   1385c:	0005a683          	lw	a3,0(a1)
   13860:	000c2603          	lw	a2,0(s8)
   13864:	00458593          	addi	a1,a1,4
   13868:	00a6f7b3          	and	a5,a3,a0
   1386c:	00a67833          	and	a6,a2,a0
   13870:	410787b3          	sub	a5,a5,a6
   13874:	00e787b3          	add	a5,a5,a4
   13878:	4107d713          	srai	a4,a5,0x10
   1387c:	01065613          	srli	a2,a2,0x10
   13880:	0106d693          	srli	a3,a3,0x10
   13884:	40c70733          	sub	a4,a4,a2
   13888:	00d70733          	add	a4,a4,a3
   1388c:	01071693          	slli	a3,a4,0x10
   13890:	00a7f7b3          	and	a5,a5,a0
   13894:	00d7e7b3          	or	a5,a5,a3
   13898:	004c0c13          	addi	s8,s8,4
   1389c:	fef5ae23          	sw	a5,-4(a1)
   138a0:	41075713          	srai	a4,a4,0x10
   138a4:	fb897ce3          	bgeu	s2,s8,1385c <quorem+0x168>
   138a8:	00249793          	slli	a5,s1,0x2
   138ac:	00f987b3          	add	a5,s3,a5
   138b0:	0007a703          	lw	a4,0(a5)
   138b4:	02071463          	bnez	a4,138dc <quorem+0x1e8>
   138b8:	ffc78793          	addi	a5,a5,-4
   138bc:	00f9e863          	bltu	s3,a5,138cc <quorem+0x1d8>
   138c0:	0180006f          	j	138d8 <quorem+0x1e4>
   138c4:	fff48493          	addi	s1,s1,-1
   138c8:	00f9f863          	bgeu	s3,a5,138d8 <quorem+0x1e4>
   138cc:	0007a703          	lw	a4,0(a5)
   138d0:	ffc78793          	addi	a5,a5,-4
   138d4:	fe0708e3          	beqz	a4,138c4 <quorem+0x1d0>
   138d8:	009a2823          	sw	s1,16(s4)
   138dc:	00140413          	addi	s0,s0,1
   138e0:	00040513          	mv	a0,s0
   138e4:	04c12083          	lw	ra,76(sp)
   138e8:	04812403          	lw	s0,72(sp)
   138ec:	04412483          	lw	s1,68(sp)
   138f0:	04012903          	lw	s2,64(sp)
   138f4:	03c12983          	lw	s3,60(sp)
   138f8:	03812a03          	lw	s4,56(sp)
   138fc:	03412a83          	lw	s5,52(sp)
   13900:	03012b03          	lw	s6,48(sp)
   13904:	02c12b83          	lw	s7,44(sp)
   13908:	02812c03          	lw	s8,40(sp)
   1390c:	02412c83          	lw	s9,36(sp)
   13910:	02012d03          	lw	s10,32(sp)
   13914:	01c12d83          	lw	s11,28(sp)
   13918:	05010113          	addi	sp,sp,80
   1391c:	00008067          	ret
   13920:	00000513          	li	a0,0
   13924:	fc1ff06f          	j	138e4 <quorem+0x1f0>

00013928 <_dtoa_r>:
   13928:	04052303          	lw	t1,64(a0)
   1392c:	f5010113          	addi	sp,sp,-176
   13930:	0a812423          	sw	s0,168(sp)
   13934:	0a912223          	sw	s1,164(sp)
   13938:	0b212023          	sw	s2,160(sp)
   1393c:	09312e23          	sw	s3,156(sp)
   13940:	09a12023          	sw	s10,128(sp)
   13944:	07b12e23          	sw	s11,124(sp)
   13948:	0a112623          	sw	ra,172(sp)
   1394c:	09412c23          	sw	s4,152(sp)
   13950:	09512a23          	sw	s5,148(sp)
   13954:	09612823          	sw	s6,144(sp)
   13958:	09712623          	sw	s7,140(sp)
   1395c:	09812423          	sw	s8,136(sp)
   13960:	09912223          	sw	s9,132(sp)
   13964:	00e12823          	sw	a4,16(sp)
   13968:	00f12223          	sw	a5,4(sp)
   1396c:	01112023          	sw	a7,0(sp)
   13970:	02b12423          	sw	a1,40(sp)
   13974:	00050413          	mv	s0,a0
   13978:	00058d93          	mv	s11,a1
   1397c:	00060493          	mv	s1,a2
   13980:	00068993          	mv	s3,a3
   13984:	00080913          	mv	s2,a6
   13988:	00060d13          	mv	s10,a2
   1398c:	02030263          	beqz	t1,139b0 <_dtoa_r+0x88>
   13990:	04452703          	lw	a4,68(a0)
   13994:	00100793          	li	a5,1
   13998:	00030593          	mv	a1,t1
   1399c:	00e797b3          	sll	a5,a5,a4
   139a0:	00e32223          	sw	a4,4(t1)
   139a4:	00f32423          	sw	a5,8(t1)
   139a8:	6f8040ef          	jal	ra,180a0 <_Bfree>
   139ac:	04042023          	sw	zero,64(s0)
   139b0:	00048a93          	mv	s5,s1
   139b4:	00000693          	li	a3,0
   139b8:	0004da63          	bgez	s1,139cc <_dtoa_r+0xa4>
   139bc:	00149493          	slli	s1,s1,0x1
   139c0:	0014dd13          	srli	s10,s1,0x1
   139c4:	000d0a93          	mv	s5,s10
   139c8:	00100693          	li	a3,1
   139cc:	7ff00737          	lui	a4,0x7ff00
   139d0:	00d92023          	sw	a3,0(s2)
   139d4:	00eaf6b3          	and	a3,s5,a4
   139d8:	66e68663          	beq	a3,a4,14044 <_dtoa_r+0x71c>
   139dc:	000d8513          	mv	a0,s11
   139e0:	000d0593          	mv	a1,s10
   139e4:	00000613          	li	a2,0
   139e8:	00000693          	li	a3,0
   139ec:	2740c0ef          	jal	ra,1fc60 <__eqdf2>
   139f0:	01b12a23          	sw	s11,20(sp)
   139f4:	01a12c23          	sw	s10,24(sp)
   139f8:	06051663          	bnez	a0,13a64 <_dtoa_r+0x13c>
   139fc:	00412703          	lw	a4,4(sp)
   13a00:	00100793          	li	a5,1
   13a04:	00f72023          	sw	a5,0(a4) # 7ff00000 <__BSS_END__+0x7fedc1d0>
   13a08:	00012703          	lw	a4,0(sp)
   13a0c:	00070863          	beqz	a4,13a1c <_dtoa_r+0xf4>
   13a10:	0000e797          	auipc	a5,0xe
   13a14:	db978793          	addi	a5,a5,-583 # 217c9 <__clzsi2+0x119>
   13a18:	00f72023          	sw	a5,0(a4)
   13a1c:	0000ea97          	auipc	s5,0xe
   13a20:	daca8a93          	addi	s5,s5,-596 # 217c8 <__clzsi2+0x118>
   13a24:	0ac12083          	lw	ra,172(sp)
   13a28:	0a812403          	lw	s0,168(sp)
   13a2c:	0a412483          	lw	s1,164(sp)
   13a30:	0a012903          	lw	s2,160(sp)
   13a34:	09c12983          	lw	s3,156(sp)
   13a38:	09812a03          	lw	s4,152(sp)
   13a3c:	09012b03          	lw	s6,144(sp)
   13a40:	08c12b83          	lw	s7,140(sp)
   13a44:	08812c03          	lw	s8,136(sp)
   13a48:	08412c83          	lw	s9,132(sp)
   13a4c:	08012d03          	lw	s10,128(sp)
   13a50:	07c12d83          	lw	s11,124(sp)
   13a54:	000a8513          	mv	a0,s5
   13a58:	09412a83          	lw	s5,148(sp)
   13a5c:	0b010113          	addi	sp,sp,176
   13a60:	00008067          	ret
   13a64:	06810713          	addi	a4,sp,104
   13a68:	06c10693          	addi	a3,sp,108
   13a6c:	000d0613          	mv	a2,s10
   13a70:	000d8593          	mv	a1,s11
   13a74:	00040513          	mv	a0,s0
   13a78:	4bc050ef          	jal	ra,18f34 <__d2b>
   13a7c:	014ad913          	srli	s2,s5,0x14
   13a80:	00050493          	mv	s1,a0
   13a84:	60091263          	bnez	s2,14088 <_dtoa_r+0x760>
   13a88:	06812a03          	lw	s4,104(sp)
   13a8c:	06c12903          	lw	s2,108(sp)
   13a90:	02000793          	li	a5,32
   13a94:	012a0933          	add	s2,s4,s2
   13a98:	43290713          	addi	a4,s2,1074
   13a9c:	36e7dee3          	bge	a5,a4,14618 <_dtoa_r+0xcf0>
   13aa0:	04000793          	li	a5,64
   13aa4:	40e787b3          	sub	a5,a5,a4
   13aa8:	41290513          	addi	a0,s2,1042
   13aac:	00fa97b3          	sll	a5,s5,a5
   13ab0:	00add533          	srl	a0,s11,a0
   13ab4:	00a7e533          	or	a0,a5,a0
   13ab8:	6b80d0ef          	jal	ra,21170 <__floatunsidf>
   13abc:	fe1007b7          	lui	a5,0xfe100
   13ac0:	00100693          	li	a3,1
   13ac4:	00050713          	mv	a4,a0
   13ac8:	00b787b3          	add	a5,a5,a1
   13acc:	fff90913          	addi	s2,s2,-1
   13ad0:	02d12a23          	sw	a3,52(sp)
   13ad4:	00010697          	auipc	a3,0x10
   13ad8:	fcc68693          	addi	a3,a3,-52 # 23aa0 <__SDATA_BEGIN__+0x20>
   13adc:	0006a603          	lw	a2,0(a3)
   13ae0:	0046a683          	lw	a3,4(a3)
   13ae4:	00070513          	mv	a0,a4
   13ae8:	00078593          	mv	a1,a5
   13aec:	3e10c0ef          	jal	ra,206cc <__subdf3>
   13af0:	00010797          	auipc	a5,0x10
   13af4:	fb878793          	addi	a5,a5,-72 # 23aa8 <__SDATA_BEGIN__+0x28>
   13af8:	0007a603          	lw	a2,0(a5)
   13afc:	0047a683          	lw	a3,4(a5)
   13b00:	3f00c0ef          	jal	ra,1fef0 <__muldf3>
   13b04:	00010797          	auipc	a5,0x10
   13b08:	fac78793          	addi	a5,a5,-84 # 23ab0 <__SDATA_BEGIN__+0x30>
   13b0c:	0007a603          	lw	a2,0(a5)
   13b10:	0047a683          	lw	a3,4(a5)
   13b14:	7f50a0ef          	jal	ra,1eb08 <__adddf3>
   13b18:	00050b13          	mv	s6,a0
   13b1c:	00090513          	mv	a0,s2
   13b20:	00058a93          	mv	s5,a1
   13b24:	5940d0ef          	jal	ra,210b8 <__floatsidf>
   13b28:	00010797          	auipc	a5,0x10
   13b2c:	f9078793          	addi	a5,a5,-112 # 23ab8 <__SDATA_BEGIN__+0x38>
   13b30:	0007a603          	lw	a2,0(a5)
   13b34:	0047a683          	lw	a3,4(a5)
   13b38:	3b80c0ef          	jal	ra,1fef0 <__muldf3>
   13b3c:	00050613          	mv	a2,a0
   13b40:	00058693          	mv	a3,a1
   13b44:	000b0513          	mv	a0,s6
   13b48:	000a8593          	mv	a1,s5
   13b4c:	7bd0a0ef          	jal	ra,1eb08 <__adddf3>
   13b50:	00050b13          	mv	s6,a0
   13b54:	00058a93          	mv	s5,a1
   13b58:	4dc0d0ef          	jal	ra,21034 <__fixdfsi>
   13b5c:	00050c13          	mv	s8,a0
   13b60:	000a8593          	mv	a1,s5
   13b64:	000b0513          	mv	a0,s6
   13b68:	00000613          	li	a2,0
   13b6c:	00000693          	li	a3,0
   13b70:	2800c0ef          	jal	ra,1fdf0 <__ledf2>
   13b74:	02055063          	bgez	a0,13b94 <_dtoa_r+0x26c>
   13b78:	000c0513          	mv	a0,s8
   13b7c:	53c0d0ef          	jal	ra,210b8 <__floatsidf>
   13b80:	000b0613          	mv	a2,s6
   13b84:	000a8693          	mv	a3,s5
   13b88:	0d80c0ef          	jal	ra,1fc60 <__eqdf2>
   13b8c:	00a03533          	snez	a0,a0
   13b90:	40ac0c33          	sub	s8,s8,a0
   13b94:	412a0a33          	sub	s4,s4,s2
   13b98:	01600793          	li	a5,22
   13b9c:	fffa0b13          	addi	s6,s4,-1
   13ba0:	2387e6e3          	bltu	a5,s8,145cc <_dtoa_r+0xca4>
   13ba4:	0000e917          	auipc	s2,0xe
   13ba8:	4ac90913          	addi	s2,s2,1196 # 22050 <__mprec_tens>
   13bac:	003c1793          	slli	a5,s8,0x3
   13bb0:	00f907b3          	add	a5,s2,a5
   13bb4:	0007a603          	lw	a2,0(a5)
   13bb8:	0047a683          	lw	a3,4(a5)
   13bbc:	01412503          	lw	a0,20(sp)
   13bc0:	01812583          	lw	a1,24(sp)
   13bc4:	22c0c0ef          	jal	ra,1fdf0 <__ledf2>
   13bc8:	280556e3          	bgez	a0,14654 <_dtoa_r+0xd2c>
   13bcc:	fffc0c13          	addi	s8,s8,-1
   13bd0:	02012823          	sw	zero,48(sp)
   13bd4:	00012423          	sw	zero,8(sp)
   13bd8:	4c0b4c63          	bltz	s6,140b0 <_dtoa_r+0x788>
   13bdc:	4e0c5463          	bgez	s8,140c4 <_dtoa_r+0x79c>
   13be0:	00812783          	lw	a5,8(sp)
   13be4:	01812e23          	sw	s8,28(sp)
   13be8:	418787b3          	sub	a5,a5,s8
   13bec:	00f12423          	sw	a5,8(sp)
   13bf0:	418007b3          	neg	a5,s8
   13bf4:	02f12623          	sw	a5,44(sp)
   13bf8:	00900793          	li	a5,9
   13bfc:	00000c13          	li	s8,0
   13c00:	4d37ec63          	bltu	a5,s3,140d8 <_dtoa_r+0x7b0>
   13c04:	00500793          	li	a5,5
   13c08:	2137dee3          	bge	a5,s3,14624 <_dtoa_r+0xcfc>
   13c0c:	ffc98993          	addi	s3,s3,-4
   13c10:	00300793          	li	a5,3
   13c14:	00000913          	li	s2,0
   13c18:	64f988e3          	beq	s3,a5,14a68 <_dtoa_r+0x1140>
   13c1c:	6137d8e3          	bge	a5,s3,14a2c <_dtoa_r+0x1104>
   13c20:	00400793          	li	a5,4
   13c24:	50f986e3          	beq	s3,a5,14930 <_dtoa_r+0x1008>
   13c28:	00100793          	li	a5,1
   13c2c:	00500993          	li	s3,5
   13c30:	02f12023          	sw	a5,32(sp)
   13c34:	01012783          	lw	a5,16(sp)
   13c38:	01c12703          	lw	a4,28(sp)
   13c3c:	00e787b3          	add	a5,a5,a4
   13c40:	00178a13          	addi	s4,a5,1
   13c44:	04f12023          	sw	a5,64(sp)
   13c48:	000a0613          	mv	a2,s4
   13c4c:	01404463          	bgtz	s4,13c54 <_dtoa_r+0x32c>
   13c50:	00100613          	li	a2,1
   13c54:	01700693          	li	a3,23
   13c58:	00100713          	li	a4,1
   13c5c:	00400793          	li	a5,4
   13c60:	00c6c463          	blt	a3,a2,13c68 <_dtoa_r+0x340>
   13c64:	3380106f          	j	14f9c <_dtoa_r+0x1674>
   13c68:	00179793          	slli	a5,a5,0x1
   13c6c:	01478693          	addi	a3,a5,20
   13c70:	00070593          	mv	a1,a4
   13c74:	00170713          	addi	a4,a4,1
   13c78:	fed678e3          	bgeu	a2,a3,13c68 <_dtoa_r+0x340>
   13c7c:	04b42223          	sw	a1,68(s0)
   13c80:	00040513          	mv	a0,s0
   13c84:	374040ef          	jal	ra,17ff8 <_Balloc>
   13c88:	00050a93          	mv	s5,a0
   13c8c:	00051463          	bnez	a0,13c94 <_dtoa_r+0x36c>
   13c90:	2f00106f          	j	14f80 <_dtoa_r+0x1658>
   13c94:	04a42023          	sw	a0,64(s0)
   13c98:	00e00793          	li	a5,14
   13c9c:	5347e263          	bltu	a5,s4,141c0 <_dtoa_r+0x898>
   13ca0:	52090063          	beqz	s2,141c0 <_dtoa_r+0x898>
   13ca4:	01c12703          	lw	a4,28(sp)
   13ca8:	60e050e3          	blez	a4,14aa8 <_dtoa_r+0x1180>
   13cac:	00f77793          	andi	a5,a4,15
   13cb0:	40475c93          	srai	s9,a4,0x4
   13cb4:	0000e917          	auipc	s2,0xe
   13cb8:	39c90913          	addi	s2,s2,924 # 22050 <__mprec_tens>
   13cbc:	00379793          	slli	a5,a5,0x3
   13cc0:	00f907b3          	add	a5,s2,a5
   13cc4:	010cf693          	andi	a3,s9,16
   13cc8:	0007a803          	lw	a6,0(a5)
   13ccc:	0047a703          	lw	a4,4(a5)
   13cd0:	540686e3          	beqz	a3,14a1c <_dtoa_r+0x10f4>
   13cd4:	0000e797          	auipc	a5,0xe
   13cd8:	35478793          	addi	a5,a5,852 # 22028 <__mprec_bigtens>
   13cdc:	0207a603          	lw	a2,32(a5)
   13ce0:	0247a683          	lw	a3,36(a5)
   13ce4:	01412503          	lw	a0,20(sp)
   13ce8:	01812583          	lw	a1,24(sp)
   13cec:	04e12223          	sw	a4,68(sp)
   13cf0:	03012c23          	sw	a6,56(sp)
   13cf4:	6dc0b0ef          	jal	ra,1f3d0 <__divdf3>
   13cf8:	03812803          	lw	a6,56(sp)
   13cfc:	04412703          	lw	a4,68(sp)
   13d00:	00fcfc93          	andi	s9,s9,15
   13d04:	00050313          	mv	t1,a0
   13d08:	00058893          	mv	a7,a1
   13d0c:	00300913          	li	s2,3
   13d10:	060c8663          	beqz	s9,13d7c <_dtoa_r+0x454>
   13d14:	0000eb97          	auipc	s7,0xe
   13d18:	314b8b93          	addi	s7,s7,788 # 22028 <__mprec_bigtens>
   13d1c:	02912c23          	sw	s1,56(sp)
   13d20:	04812223          	sw	s0,68(sp)
   13d24:	00090493          	mv	s1,s2
   13d28:	000b8413          	mv	s0,s7
   13d2c:	00088913          	mv	s2,a7
   13d30:	00030b93          	mv	s7,t1
   13d34:	00070593          	mv	a1,a4
   13d38:	001cf693          	andi	a3,s9,1
   13d3c:	00068e63          	beqz	a3,13d58 <_dtoa_r+0x430>
   13d40:	00042603          	lw	a2,0(s0)
   13d44:	00442683          	lw	a3,4(s0)
   13d48:	00080513          	mv	a0,a6
   13d4c:	00148493          	addi	s1,s1,1
   13d50:	1a00c0ef          	jal	ra,1fef0 <__muldf3>
   13d54:	00050813          	mv	a6,a0
   13d58:	401cdc93          	srai	s9,s9,0x1
   13d5c:	00840413          	addi	s0,s0,8
   13d60:	fc0c9ce3          	bnez	s9,13d38 <_dtoa_r+0x410>
   13d64:	00090893          	mv	a7,s2
   13d68:	04412403          	lw	s0,68(sp)
   13d6c:	00048913          	mv	s2,s1
   13d70:	03812483          	lw	s1,56(sp)
   13d74:	000b8313          	mv	t1,s7
   13d78:	00058713          	mv	a4,a1
   13d7c:	00080613          	mv	a2,a6
   13d80:	00030513          	mv	a0,t1
   13d84:	00070693          	mv	a3,a4
   13d88:	00088593          	mv	a1,a7
   13d8c:	6440b0ef          	jal	ra,1f3d0 <__divdf3>
   13d90:	00050793          	mv	a5,a0
   13d94:	00058b93          	mv	s7,a1
   13d98:	03012703          	lw	a4,48(sp)
   13d9c:	02070863          	beqz	a4,13dcc <_dtoa_r+0x4a4>
   13da0:	00010697          	auipc	a3,0x10
   13da4:	d2068693          	addi	a3,a3,-736 # 23ac0 <__SDATA_BEGIN__+0x40>
   13da8:	0006a603          	lw	a2,0(a3)
   13dac:	0046a683          	lw	a3,4(a3)
   13db0:	00078513          	mv	a0,a5
   13db4:	000b8593          	mv	a1,s7
   13db8:	02f12c23          	sw	a5,56(sp)
   13dbc:	0340c0ef          	jal	ra,1fdf0 <__ledf2>
   13dc0:	03812783          	lw	a5,56(sp)
   13dc4:	00055463          	bgez	a0,13dcc <_dtoa_r+0x4a4>
   13dc8:	0300106f          	j	14df8 <_dtoa_r+0x14d0>
   13dcc:	00090513          	mv	a0,s2
   13dd0:	02f12c23          	sw	a5,56(sp)
   13dd4:	2e40d0ef          	jal	ra,210b8 <__floatsidf>
   13dd8:	03812783          	lw	a5,56(sp)
   13ddc:	000b8693          	mv	a3,s7
   13de0:	00078613          	mv	a2,a5
   13de4:	04f12223          	sw	a5,68(sp)
   13de8:	1080c0ef          	jal	ra,1fef0 <__muldf3>
   13dec:	00010717          	auipc	a4,0x10
   13df0:	ce470713          	addi	a4,a4,-796 # 23ad0 <__SDATA_BEGIN__+0x50>
   13df4:	00072603          	lw	a2,0(a4)
   13df8:	00472683          	lw	a3,4(a4)
   13dfc:	50d0a0ef          	jal	ra,1eb08 <__adddf3>
   13e00:	fcc00737          	lui	a4,0xfcc00
   13e04:	00b707b3          	add	a5,a4,a1
   13e08:	02f12c23          	sw	a5,56(sp)
   13e0c:	00050c93          	mv	s9,a0
   13e10:	04412783          	lw	a5,68(sp)
   13e14:	340a0863          	beqz	s4,14164 <_dtoa_r+0x83c>
   13e18:	01c12703          	lw	a4,28(sp)
   13e1c:	05412223          	sw	s4,68(sp)
   13e20:	04e12c23          	sw	a4,88(sp)
   13e24:	04412703          	lw	a4,68(sp)
   13e28:	0000e917          	auipc	s2,0xe
   13e2c:	22890913          	addi	s2,s2,552 # 22050 <__mprec_tens>
   13e30:	00078513          	mv	a0,a5
   13e34:	fff70713          	addi	a4,a4,-1 # fcbfffff <__BSS_END__+0xfcbdc1cf>
   13e38:	00371713          	slli	a4,a4,0x3
   13e3c:	00e90733          	add	a4,s2,a4
   13e40:	00472803          	lw	a6,4(a4)
   13e44:	04f12623          	sw	a5,76(sp)
   13e48:	00072783          	lw	a5,0(a4)
   13e4c:	000b8593          	mv	a1,s7
   13e50:	05012a23          	sw	a6,84(sp)
   13e54:	04f12823          	sw	a5,80(sp)
   13e58:	1dc0d0ef          	jal	ra,21034 <__fixdfsi>
   13e5c:	04a12423          	sw	a0,72(sp)
   13e60:	2580d0ef          	jal	ra,210b8 <__floatsidf>
   13e64:	04c12783          	lw	a5,76(sp)
   13e68:	00058693          	mv	a3,a1
   13e6c:	00050613          	mv	a2,a0
   13e70:	000b8593          	mv	a1,s7
   13e74:	00078513          	mv	a0,a5
   13e78:	0550c0ef          	jal	ra,206cc <__subdf3>
   13e7c:	04812703          	lw	a4,72(sp)
   13e80:	000c8793          	mv	a5,s9
   13e84:	03812b83          	lw	s7,56(sp)
   13e88:	03070693          	addi	a3,a4,48
   13e8c:	0ff6f813          	zext.b	a6,a3
   13e90:	02012683          	lw	a3,32(sp)
   13e94:	00050c93          	mv	s9,a0
   13e98:	001a8713          	addi	a4,s5,1
   13e9c:	5c0686e3          	beqz	a3,14c68 <_dtoa_r+0x1340>
   13ea0:	00010697          	auipc	a3,0x10
   13ea4:	bf868693          	addi	a3,a3,-1032 # 23a98 <__SDATA_BEGIN__+0x18>
   13ea8:	0006a503          	lw	a0,0(a3)
   13eac:	05012603          	lw	a2,80(sp)
   13eb0:	02b12c23          	sw	a1,56(sp)
   13eb4:	0046a583          	lw	a1,4(a3)
   13eb8:	05412683          	lw	a3,84(sp)
   13ebc:	04e12423          	sw	a4,72(sp)
   13ec0:	05012623          	sw	a6,76(sp)
   13ec4:	04f12e23          	sw	a5,92(sp)
   13ec8:	5080b0ef          	jal	ra,1f3d0 <__divdf3>
   13ecc:	05c12783          	lw	a5,92(sp)
   13ed0:	000b8693          	mv	a3,s7
   13ed4:	00078613          	mv	a2,a5
   13ed8:	7f40c0ef          	jal	ra,206cc <__subdf3>
   13edc:	03812883          	lw	a7,56(sp)
   13ee0:	04c12803          	lw	a6,76(sp)
   13ee4:	000c8613          	mv	a2,s9
   13ee8:	00088693          	mv	a3,a7
   13eec:	010a8023          	sb	a6,0(s5)
   13ef0:	00050913          	mv	s2,a0
   13ef4:	00058b93          	mv	s7,a1
   13ef8:	5f50b0ef          	jal	ra,1fcec <__gedf2>
   13efc:	03812883          	lw	a7,56(sp)
   13f00:	04812703          	lw	a4,72(sp)
   13f04:	00a05463          	blez	a0,13f0c <_dtoa_r+0x5e4>
   13f08:	7a90006f          	j	14eb0 <_dtoa_r+0x1588>
   13f0c:	00010697          	auipc	a3,0x10
   13f10:	bb468693          	addi	a3,a3,-1100 # 23ac0 <__SDATA_BEGIN__+0x40>
   13f14:	0006a783          	lw	a5,0(a3)
   13f18:	0046a803          	lw	a6,4(a3)
   13f1c:	05812423          	sw	s8,72(sp)
   13f20:	02f12c23          	sw	a5,56(sp)
   13f24:	00000793          	li	a5,0
   13f28:	04412c03          	lw	s8,68(sp)
   13f2c:	05612623          	sw	s6,76(sp)
   13f30:	05412823          	sw	s4,80(sp)
   13f34:	05312223          	sw	s3,68(sp)
   13f38:	03012e23          	sw	a6,60(sp)
   13f3c:	00070b13          	mv	s6,a4
   13f40:	00078a13          	mv	s4,a5
   13f44:	05a12e23          	sw	s10,92(sp)
   13f48:	00088993          	mv	s3,a7
   13f4c:	0980006f          	j	13fe4 <_dtoa_r+0x6bc>
   13f50:	001a0a13          	addi	s4,s4,1
   13f54:	018a4463          	blt	s4,s8,13f5c <_dtoa_r+0x634>
   13f58:	79d0006f          	j	14ef4 <_dtoa_r+0x15cc>
   13f5c:	00010d17          	auipc	s10,0x10
   13f60:	b6cd0d13          	addi	s10,s10,-1172 # 23ac8 <__SDATA_BEGIN__+0x48>
   13f64:	000d2603          	lw	a2,0(s10)
   13f68:	004d2683          	lw	a3,4(s10)
   13f6c:	00090513          	mv	a0,s2
   13f70:	000b8593          	mv	a1,s7
   13f74:	77d0b0ef          	jal	ra,1fef0 <__muldf3>
   13f78:	000d2603          	lw	a2,0(s10)
   13f7c:	004d2683          	lw	a3,4(s10)
   13f80:	00050913          	mv	s2,a0
   13f84:	00058b93          	mv	s7,a1
   13f88:	000c8513          	mv	a0,s9
   13f8c:	00098593          	mv	a1,s3
   13f90:	7610b0ef          	jal	ra,1fef0 <__muldf3>
   13f94:	00058c93          	mv	s9,a1
   13f98:	00050d13          	mv	s10,a0
   13f9c:	0980d0ef          	jal	ra,21034 <__fixdfsi>
   13fa0:	00050993          	mv	s3,a0
   13fa4:	1140d0ef          	jal	ra,210b8 <__floatsidf>
   13fa8:	00050613          	mv	a2,a0
   13fac:	00058693          	mv	a3,a1
   13fb0:	000d0513          	mv	a0,s10
   13fb4:	000c8593          	mv	a1,s9
   13fb8:	7140c0ef          	jal	ra,206cc <__subdf3>
   13fbc:	03098793          	addi	a5,s3,48
   13fc0:	00090613          	mv	a2,s2
   13fc4:	000b8693          	mv	a3,s7
   13fc8:	00fb0023          	sb	a5,0(s6)
   13fcc:	001b0b13          	addi	s6,s6,1
   13fd0:	00050c93          	mv	s9,a0
   13fd4:	00058993          	mv	s3,a1
   13fd8:	6190b0ef          	jal	ra,1fdf0 <__ledf2>
   13fdc:	00055463          	bgez	a0,13fe4 <_dtoa_r+0x6bc>
   13fe0:	6cd0006f          	j	14eac <_dtoa_r+0x1584>
   13fe4:	03812503          	lw	a0,56(sp)
   13fe8:	03c12583          	lw	a1,60(sp)
   13fec:	000c8613          	mv	a2,s9
   13ff0:	00098693          	mv	a3,s3
   13ff4:	6d80c0ef          	jal	ra,206cc <__subdf3>
   13ff8:	00090613          	mv	a2,s2
   13ffc:	000b8693          	mv	a3,s7
   14000:	5f10b0ef          	jal	ra,1fdf0 <__ledf2>
   14004:	f40556e3          	bgez	a0,13f50 <_dtoa_r+0x628>
   14008:	05812783          	lw	a5,88(sp)
   1400c:	000b0b93          	mv	s7,s6
   14010:	00178c93          	addi	s9,a5,1
   14014:	03900613          	li	a2,57
   14018:	0080006f          	j	14020 <_dtoa_r+0x6f8>
   1401c:	677a8ce3          	beq	s5,s7,14e94 <_dtoa_r+0x156c>
   14020:	fffbc683          	lbu	a3,-1(s7)
   14024:	000b8713          	mv	a4,s7
   14028:	fffb8b93          	addi	s7,s7,-1
   1402c:	fec688e3          	beq	a3,a2,1401c <_dtoa_r+0x6f4>
   14030:	00168693          	addi	a3,a3,1
   14034:	0ff6f693          	zext.b	a3,a3
   14038:	00db8023          	sb	a3,0(s7)
   1403c:	000c8c13          	mv	s8,s9
   14040:	4f80006f          	j	14538 <_dtoa_r+0xc10>
   14044:	00412683          	lw	a3,4(sp)
   14048:	00ca9793          	slli	a5,s5,0xc
   1404c:	00002737          	lui	a4,0x2
   14050:	00c7d793          	srli	a5,a5,0xc
   14054:	70f70713          	addi	a4,a4,1807 # 270f <exit-0xd985>
   14058:	00e6a023          	sw	a4,0(a3)
   1405c:	01b7e7b3          	or	a5,a5,s11
   14060:	0a078063          	beqz	a5,14100 <_dtoa_r+0x7d8>
   14064:	00012783          	lw	a5,0(sp)
   14068:	0000ea97          	auipc	s5,0xe
   1406c:	994a8a93          	addi	s5,s5,-1644 # 219fc <blanks.1+0x1c>
   14070:	9a078ae3          	beqz	a5,13a24 <_dtoa_r+0xfc>
   14074:	0000e797          	auipc	a5,0xe
   14078:	98b78793          	addi	a5,a5,-1653 # 219ff <blanks.1+0x1f>
   1407c:	00012703          	lw	a4,0(sp)
   14080:	00f72023          	sw	a5,0(a4)
   14084:	9a1ff06f          	j	13a24 <_dtoa_r+0xfc>
   14088:	01812783          	lw	a5,24(sp)
   1408c:	3ff006b7          	lui	a3,0x3ff00
   14090:	06812a03          	lw	s4,104(sp)
   14094:	00c79793          	slli	a5,a5,0xc
   14098:	00c7d793          	srli	a5,a5,0xc
   1409c:	01412703          	lw	a4,20(sp)
   140a0:	00d7e7b3          	or	a5,a5,a3
   140a4:	c0190913          	addi	s2,s2,-1023
   140a8:	02012a23          	sw	zero,52(sp)
   140ac:	a29ff06f          	j	13ad4 <_dtoa_r+0x1ac>
   140b0:	00100793          	li	a5,1
   140b4:	414787b3          	sub	a5,a5,s4
   140b8:	00f12423          	sw	a5,8(sp)
   140bc:	00000b13          	li	s6,0
   140c0:	b20c40e3          	bltz	s8,13be0 <_dtoa_r+0x2b8>
   140c4:	01812e23          	sw	s8,28(sp)
   140c8:	02012623          	sw	zero,44(sp)
   140cc:	00900793          	li	a5,9
   140d0:	018b0b33          	add	s6,s6,s8
   140d4:	b337f8e3          	bgeu	a5,s3,13c04 <_dtoa_r+0x2dc>
   140d8:	00100793          	li	a5,1
   140dc:	00100913          	li	s2,1
   140e0:	00000993          	li	s3,0
   140e4:	02f12023          	sw	a5,32(sp)
   140e8:	fff00a13          	li	s4,-1
   140ec:	00012823          	sw	zero,16(sp)
   140f0:	04042223          	sw	zero,68(s0)
   140f4:	05412023          	sw	s4,64(sp)
   140f8:	00000593          	li	a1,0
   140fc:	b85ff06f          	j	13c80 <_dtoa_r+0x358>
   14100:	00012703          	lw	a4,0(sp)
   14104:	0000ea97          	auipc	s5,0xe
   14108:	8eca8a93          	addi	s5,s5,-1812 # 219f0 <blanks.1+0x10>
   1410c:	0000e797          	auipc	a5,0xe
   14110:	8ec78793          	addi	a5,a5,-1812 # 219f8 <blanks.1+0x18>
   14114:	f60714e3          	bnez	a4,1407c <_dtoa_r+0x754>
   14118:	90dff06f          	j	13a24 <_dtoa_r+0xfc>
   1411c:	00090513          	mv	a0,s2
   14120:	02f12c23          	sw	a5,56(sp)
   14124:	7950c0ef          	jal	ra,210b8 <__floatsidf>
   14128:	03812783          	lw	a5,56(sp)
   1412c:	000b8693          	mv	a3,s7
   14130:	00078613          	mv	a2,a5
   14134:	04f12223          	sw	a5,68(sp)
   14138:	5b90b0ef          	jal	ra,1fef0 <__muldf3>
   1413c:	00010717          	auipc	a4,0x10
   14140:	99470713          	addi	a4,a4,-1644 # 23ad0 <__SDATA_BEGIN__+0x50>
   14144:	00072603          	lw	a2,0(a4)
   14148:	00472683          	lw	a3,4(a4)
   1414c:	1bd0a0ef          	jal	ra,1eb08 <__adddf3>
   14150:	fcc00737          	lui	a4,0xfcc00
   14154:	00b707b3          	add	a5,a4,a1
   14158:	02f12c23          	sw	a5,56(sp)
   1415c:	04412783          	lw	a5,68(sp)
   14160:	00050c93          	mv	s9,a0
   14164:	00010717          	auipc	a4,0x10
   14168:	97470713          	addi	a4,a4,-1676 # 23ad8 <__SDATA_BEGIN__+0x58>
   1416c:	00072603          	lw	a2,0(a4)
   14170:	00472683          	lw	a3,4(a4)
   14174:	00078513          	mv	a0,a5
   14178:	000b8593          	mv	a1,s7
   1417c:	5500c0ef          	jal	ra,206cc <__subdf3>
   14180:	03812783          	lw	a5,56(sp)
   14184:	000c8613          	mv	a2,s9
   14188:	00050b93          	mv	s7,a0
   1418c:	00078693          	mv	a3,a5
   14190:	00058913          	mv	s2,a1
   14194:	3590b0ef          	jal	ra,1fcec <__gedf2>
   14198:	50a044e3          	bgtz	a0,14ea0 <_dtoa_r+0x1578>
   1419c:	03812703          	lw	a4,56(sp)
   141a0:	800007b7          	lui	a5,0x80000
   141a4:	000b8513          	mv	a0,s7
   141a8:	00e7c7b3          	xor	a5,a5,a4
   141ac:	000c8613          	mv	a2,s9
   141b0:	00078693          	mv	a3,a5
   141b4:	00090593          	mv	a1,s2
   141b8:	4390b0ef          	jal	ra,1fdf0 <__ledf2>
   141bc:	06054c63          	bltz	a0,14234 <_dtoa_r+0x90c>
   141c0:	06c12783          	lw	a5,108(sp)
   141c4:	1a07c263          	bltz	a5,14368 <_dtoa_r+0xa40>
   141c8:	01c12683          	lw	a3,28(sp)
   141cc:	00e00713          	li	a4,14
   141d0:	0000e917          	auipc	s2,0xe
   141d4:	e8090913          	addi	s2,s2,-384 # 22050 <__mprec_tens>
   141d8:	18d74863          	blt	a4,a3,14368 <_dtoa_r+0xa40>
   141dc:	01c12783          	lw	a5,28(sp)
   141e0:	00379793          	slli	a5,a5,0x3
   141e4:	00f907b3          	add	a5,s2,a5
   141e8:	0007a903          	lw	s2,0(a5) # 80000000 <__BSS_END__+0x7ffdc1d0>
   141ec:	0047a983          	lw	s3,4(a5)
   141f0:	01012783          	lw	a5,16(sp)
   141f4:	0407dc63          	bgez	a5,1424c <_dtoa_r+0x924>
   141f8:	05404a63          	bgtz	s4,1424c <_dtoa_r+0x924>
   141fc:	020a1c63          	bnez	s4,14234 <_dtoa_r+0x90c>
   14200:	00010797          	auipc	a5,0x10
   14204:	8d878793          	addi	a5,a5,-1832 # 23ad8 <__SDATA_BEGIN__+0x58>
   14208:	0007a603          	lw	a2,0(a5)
   1420c:	0047a683          	lw	a3,4(a5)
   14210:	00090513          	mv	a0,s2
   14214:	00098593          	mv	a1,s3
   14218:	4d90b0ef          	jal	ra,1fef0 <__muldf3>
   1421c:	00050613          	mv	a2,a0
   14220:	00058693          	mv	a3,a1
   14224:	01412503          	lw	a0,20(sp)
   14228:	01812583          	lw	a1,24(sp)
   1422c:	3c50b0ef          	jal	ra,1fdf0 <__ledf2>
   14230:	46a048e3          	bgtz	a0,14ea0 <_dtoa_r+0x1578>
   14234:	000a8713          	mv	a4,s5
   14238:	00000b93          	li	s7,0
   1423c:	00000913          	li	s2,0
   14240:	01012783          	lw	a5,16(sp)
   14244:	fff7cc13          	not	s8,a5
   14248:	6840006f          	j	148cc <_dtoa_r+0xfa4>
   1424c:	01412b83          	lw	s7,20(sp)
   14250:	01812b03          	lw	s6,24(sp)
   14254:	00090613          	mv	a2,s2
   14258:	00098693          	mv	a3,s3
   1425c:	000b8513          	mv	a0,s7
   14260:	000b0593          	mv	a1,s6
   14264:	16c0b0ef          	jal	ra,1f3d0 <__divdf3>
   14268:	5cd0c0ef          	jal	ra,21034 <__fixdfsi>
   1426c:	00050d13          	mv	s10,a0
   14270:	6490c0ef          	jal	ra,210b8 <__floatsidf>
   14274:	00090613          	mv	a2,s2
   14278:	00098693          	mv	a3,s3
   1427c:	4750b0ef          	jal	ra,1fef0 <__muldf3>
   14280:	00050613          	mv	a2,a0
   14284:	00058693          	mv	a3,a1
   14288:	000b8513          	mv	a0,s7
   1428c:	000b0593          	mv	a1,s6
   14290:	43c0c0ef          	jal	ra,206cc <__subdf3>
   14294:	030d0793          	addi	a5,s10,48
   14298:	00fa8023          	sb	a5,0(s5)
   1429c:	00100613          	li	a2,1
   142a0:	00050713          	mv	a4,a0
   142a4:	00058693          	mv	a3,a1
   142a8:	001a8b93          	addi	s7,s5,1
   142ac:	0cca06e3          	beq	s4,a2,14b78 <_dtoa_r+0x1250>
   142b0:	00010617          	auipc	a2,0x10
   142b4:	81860613          	addi	a2,a2,-2024 # 23ac8 <__SDATA_BEGIN__+0x48>
   142b8:	00062783          	lw	a5,0(a2)
   142bc:	00462803          	lw	a6,4(a2)
   142c0:	00100d93          	li	s11,1
   142c4:	00f12423          	sw	a5,8(sp)
   142c8:	01012623          	sw	a6,12(sp)
   142cc:	0600006f          	j	1432c <_dtoa_r+0xa04>
   142d0:	00090613          	mv	a2,s2
   142d4:	00098693          	mv	a3,s3
   142d8:	000c0513          	mv	a0,s8
   142dc:	000b0593          	mv	a1,s6
   142e0:	0f00b0ef          	jal	ra,1f3d0 <__divdf3>
   142e4:	5510c0ef          	jal	ra,21034 <__fixdfsi>
   142e8:	00050d13          	mv	s10,a0
   142ec:	5cd0c0ef          	jal	ra,210b8 <__floatsidf>
   142f0:	00090613          	mv	a2,s2
   142f4:	00098693          	mv	a3,s3
   142f8:	3f90b0ef          	jal	ra,1fef0 <__muldf3>
   142fc:	00058693          	mv	a3,a1
   14300:	00050613          	mv	a2,a0
   14304:	000b0593          	mv	a1,s6
   14308:	000c0513          	mv	a0,s8
   1430c:	3c00c0ef          	jal	ra,206cc <__subdf3>
   14310:	001b8b93          	addi	s7,s7,1
   14314:	030d0793          	addi	a5,s10,48
   14318:	001d8d93          	addi	s11,s11,1
   1431c:	fefb8fa3          	sb	a5,-1(s7)
   14320:	00050713          	mv	a4,a0
   14324:	00058693          	mv	a3,a1
   14328:	05ba08e3          	beq	s4,s11,14b78 <_dtoa_r+0x1250>
   1432c:	00812603          	lw	a2,8(sp)
   14330:	00068593          	mv	a1,a3
   14334:	00c12683          	lw	a3,12(sp)
   14338:	00070513          	mv	a0,a4
   1433c:	3b50b0ef          	jal	ra,1fef0 <__muldf3>
   14340:	00000613          	li	a2,0
   14344:	00000693          	li	a3,0
   14348:	00050c13          	mv	s8,a0
   1434c:	00058b13          	mv	s6,a1
   14350:	1110b0ef          	jal	ra,1fc60 <__eqdf2>
   14354:	f6051ee3          	bnez	a0,142d0 <_dtoa_r+0x9a8>
   14358:	01c12783          	lw	a5,28(sp)
   1435c:	000b8713          	mv	a4,s7
   14360:	00178c13          	addi	s8,a5,1
   14364:	1d40006f          	j	14538 <_dtoa_r+0xc10>
   14368:	02012703          	lw	a4,32(sp)
   1436c:	26071a63          	bnez	a4,145e0 <_dtoa_r+0xcb8>
   14370:	02c12b83          	lw	s7,44(sp)
   14374:	00812c83          	lw	s9,8(sp)
   14378:	02012023          	sw	zero,32(sp)
   1437c:	00000913          	li	s2,0
   14380:	020c8263          	beqz	s9,143a4 <_dtoa_r+0xa7c>
   14384:	03605063          	blez	s6,143a4 <_dtoa_r+0xa7c>
   14388:	000c8793          	mv	a5,s9
   1438c:	639b4c63          	blt	s6,s9,149c4 <_dtoa_r+0x109c>
   14390:	00812703          	lw	a4,8(sp)
   14394:	40fc8cb3          	sub	s9,s9,a5
   14398:	40fb0b33          	sub	s6,s6,a5
   1439c:	40f70733          	sub	a4,a4,a5
   143a0:	00e12423          	sw	a4,8(sp)
   143a4:	02c12783          	lw	a5,44(sp)
   143a8:	02078263          	beqz	a5,143cc <_dtoa_r+0xaa4>
   143ac:	02012783          	lw	a5,32(sp)
   143b0:	00078463          	beqz	a5,143b8 <_dtoa_r+0xa90>
   143b4:	060b92e3          	bnez	s7,14c18 <_dtoa_r+0x12f0>
   143b8:	02c12603          	lw	a2,44(sp)
   143bc:	00048593          	mv	a1,s1
   143c0:	00040513          	mv	a0,s0
   143c4:	464040ef          	jal	ra,18828 <__pow5mult>
   143c8:	00050493          	mv	s1,a0
   143cc:	00100593          	li	a1,1
   143d0:	00040513          	mv	a0,s0
   143d4:	0f8040ef          	jal	ra,184cc <__i2b>
   143d8:	00050b93          	mv	s7,a0
   143dc:	500c1863          	bnez	s8,148ec <_dtoa_r+0xfc4>
   143e0:	00100793          	li	a5,1
   143e4:	5737d463          	bge	a5,s3,1494c <_dtoa_r+0x1024>
   143e8:	016787b3          	add	a5,a5,s6
   143ec:	01f7f793          	andi	a5,a5,31
   143f0:	1e078463          	beqz	a5,145d8 <_dtoa_r+0xcb0>
   143f4:	02000713          	li	a4,32
   143f8:	40f70733          	sub	a4,a4,a5
   143fc:	00400693          	li	a3,4
   14400:	58e6d863          	bge	a3,a4,14990 <_dtoa_r+0x1068>
   14404:	01c00713          	li	a4,28
   14408:	40f707b3          	sub	a5,a4,a5
   1440c:	00812703          	lw	a4,8(sp)
   14410:	00fc8cb3          	add	s9,s9,a5
   14414:	00fb0b33          	add	s6,s6,a5
   14418:	00f70733          	add	a4,a4,a5
   1441c:	00e12423          	sw	a4,8(sp)
   14420:	00812783          	lw	a5,8(sp)
   14424:	14f04263          	bgtz	a5,14568 <_dtoa_r+0xc40>
   14428:	01605c63          	blez	s6,14440 <_dtoa_r+0xb18>
   1442c:	000b8593          	mv	a1,s7
   14430:	000b0613          	mv	a2,s6
   14434:	00040513          	mv	a0,s0
   14438:	540040ef          	jal	ra,18978 <__lshift>
   1443c:	00050b93          	mv	s7,a0
   14440:	03012783          	lw	a5,48(sp)
   14444:	12079e63          	bnez	a5,14580 <_dtoa_r+0xc58>
   14448:	43405863          	blez	s4,14878 <_dtoa_r+0xf50>
   1444c:	02012783          	lw	a5,32(sp)
   14450:	24079663          	bnez	a5,1469c <_dtoa_r+0xd74>
   14454:	01c12783          	lw	a5,28(sp)
   14458:	00178c13          	addi	s8,a5,1
   1445c:	00100993          	li	s3,1
   14460:	0200006f          	j	14480 <_dtoa_r+0xb58>
   14464:	00048593          	mv	a1,s1
   14468:	00000693          	li	a3,0
   1446c:	00a00613          	li	a2,10
   14470:	00040513          	mv	a0,s0
   14474:	451030ef          	jal	ra,180c4 <__multadd>
   14478:	00050493          	mv	s1,a0
   1447c:	00198993          	addi	s3,s3,1
   14480:	000b8593          	mv	a1,s7
   14484:	00048513          	mv	a0,s1
   14488:	a6cff0ef          	jal	ra,136f4 <quorem>
   1448c:	03050d13          	addi	s10,a0,48
   14490:	013a87b3          	add	a5,s5,s3
   14494:	ffa78fa3          	sb	s10,-1(a5)
   14498:	fd49c6e3          	blt	s3,s4,14464 <_dtoa_r+0xb3c>
   1449c:	00100713          	li	a4,1
   144a0:	01405463          	blez	s4,144a8 <_dtoa_r+0xb80>
   144a4:	000a0713          	mv	a4,s4
   144a8:	00ea8a33          	add	s4,s5,a4
   144ac:	00000993          	li	s3,0
   144b0:	00048593          	mv	a1,s1
   144b4:	00100613          	li	a2,1
   144b8:	00040513          	mv	a0,s0
   144bc:	4bc040ef          	jal	ra,18978 <__lshift>
   144c0:	000b8593          	mv	a1,s7
   144c4:	00050493          	mv	s1,a0
   144c8:	640040ef          	jal	ra,18b08 <__mcmp>
   144cc:	4ca05a63          	blez	a0,149a0 <_dtoa_r+0x1078>
   144d0:	03900693          	li	a3,57
   144d4:	0080006f          	j	144dc <_dtoa_r+0xbb4>
   144d8:	5d4a8063          	beq	s5,s4,14a98 <_dtoa_r+0x1170>
   144dc:	fffa4783          	lbu	a5,-1(s4)
   144e0:	000a0713          	mv	a4,s4
   144e4:	fffa0a13          	addi	s4,s4,-1
   144e8:	fed788e3          	beq	a5,a3,144d8 <_dtoa_r+0xbb0>
   144ec:	00178793          	addi	a5,a5,1
   144f0:	00fa0023          	sb	a5,0(s4)
   144f4:	000b8593          	mv	a1,s7
   144f8:	00040513          	mv	a0,s0
   144fc:	00e12423          	sw	a4,8(sp)
   14500:	3a1030ef          	jal	ra,180a0 <_Bfree>
   14504:	00812703          	lw	a4,8(sp)
   14508:	02090863          	beqz	s2,14538 <_dtoa_r+0xc10>
   1450c:	00098c63          	beqz	s3,14524 <_dtoa_r+0xbfc>
   14510:	01298a63          	beq	s3,s2,14524 <_dtoa_r+0xbfc>
   14514:	00098593          	mv	a1,s3
   14518:	00040513          	mv	a0,s0
   1451c:	385030ef          	jal	ra,180a0 <_Bfree>
   14520:	00812703          	lw	a4,8(sp)
   14524:	00090593          	mv	a1,s2
   14528:	00040513          	mv	a0,s0
   1452c:	00e12423          	sw	a4,8(sp)
   14530:	371030ef          	jal	ra,180a0 <_Bfree>
   14534:	00812703          	lw	a4,8(sp)
   14538:	00048593          	mv	a1,s1
   1453c:	00040513          	mv	a0,s0
   14540:	00e12423          	sw	a4,8(sp)
   14544:	35d030ef          	jal	ra,180a0 <_Bfree>
   14548:	00812703          	lw	a4,8(sp)
   1454c:	00412783          	lw	a5,4(sp)
   14550:	00070023          	sb	zero,0(a4)
   14554:	0187a023          	sw	s8,0(a5)
   14558:	00012783          	lw	a5,0(sp)
   1455c:	cc078463          	beqz	a5,13a24 <_dtoa_r+0xfc>
   14560:	00e7a023          	sw	a4,0(a5)
   14564:	cc0ff06f          	j	13a24 <_dtoa_r+0xfc>
   14568:	00048593          	mv	a1,s1
   1456c:	00078613          	mv	a2,a5
   14570:	00040513          	mv	a0,s0
   14574:	404040ef          	jal	ra,18978 <__lshift>
   14578:	00050493          	mv	s1,a0
   1457c:	eadff06f          	j	14428 <_dtoa_r+0xb00>
   14580:	000b8593          	mv	a1,s7
   14584:	00048513          	mv	a0,s1
   14588:	580040ef          	jal	ra,18b08 <__mcmp>
   1458c:	ea055ee3          	bgez	a0,14448 <_dtoa_r+0xb20>
   14590:	00048593          	mv	a1,s1
   14594:	00000693          	li	a3,0
   14598:	00a00613          	li	a2,10
   1459c:	00040513          	mv	a0,s0
   145a0:	325030ef          	jal	ra,180c4 <__multadd>
   145a4:	01c12783          	lw	a5,28(sp)
   145a8:	00050493          	mv	s1,a0
   145ac:	fff78a13          	addi	s4,a5,-1
   145b0:	02012783          	lw	a5,32(sp)
   145b4:	0c079063          	bnez	a5,14674 <_dtoa_r+0xd4c>
   145b8:	04012783          	lw	a5,64(sp)
   145bc:	16f054e3          	blez	a5,14f24 <_dtoa_r+0x15fc>
   145c0:	01c12c03          	lw	s8,28(sp)
   145c4:	00078a13          	mv	s4,a5
   145c8:	e95ff06f          	j	1445c <_dtoa_r+0xb34>
   145cc:	00100793          	li	a5,1
   145d0:	02f12823          	sw	a5,48(sp)
   145d4:	e00ff06f          	j	13bd4 <_dtoa_r+0x2ac>
   145d8:	01c00793          	li	a5,28
   145dc:	e31ff06f          	j	1440c <_dtoa_r+0xae4>
   145e0:	00100713          	li	a4,1
   145e4:	49375663          	bge	a4,s3,14a70 <_dtoa_r+0x1148>
   145e8:	02c12783          	lw	a5,44(sp)
   145ec:	fffa0b93          	addi	s7,s4,-1
   145f0:	3d77ce63          	blt	a5,s7,149cc <_dtoa_r+0x10a4>
   145f4:	41778bb3          	sub	s7,a5,s7
   145f8:	00812783          	lw	a5,8(sp)
   145fc:	41478cb3          	sub	s9,a5,s4
   14600:	3e0a4a63          	bltz	s4,149f4 <_dtoa_r+0x10cc>
   14604:	00078c93          	mv	s9,a5
   14608:	014787b3          	add	a5,a5,s4
   1460c:	014b0b33          	add	s6,s6,s4
   14610:	00f12423          	sw	a5,8(sp)
   14614:	3e00006f          	j	149f4 <_dtoa_r+0x10cc>
   14618:	40e787b3          	sub	a5,a5,a4
   1461c:	00fd9533          	sll	a0,s11,a5
   14620:	c98ff06f          	j	13ab8 <_dtoa_r+0x190>
   14624:	00300793          	li	a5,3
   14628:	00100913          	li	s2,1
   1462c:	42f98e63          	beq	s3,a5,14a68 <_dtoa_r+0x1140>
   14630:	df37c863          	blt	a5,s3,13c20 <_dtoa_r+0x2f8>
   14634:	00200793          	li	a5,2
   14638:	02012023          	sw	zero,32(sp)
   1463c:	16f996e3          	bne	s3,a5,14fa8 <_dtoa_r+0x1680>
   14640:	01012603          	lw	a2,16(sp)
   14644:	2ec05c63          	blez	a2,1493c <_dtoa_r+0x1014>
   14648:	04c12023          	sw	a2,64(sp)
   1464c:	00060a13          	mv	s4,a2
   14650:	e04ff06f          	j	13c54 <_dtoa_r+0x32c>
   14654:	02012823          	sw	zero,48(sp)
   14658:	00012423          	sw	zero,8(sp)
   1465c:	a74044e3          	bgtz	s4,140c4 <_dtoa_r+0x79c>
   14660:	00100793          	li	a5,1
   14664:	414787b3          	sub	a5,a5,s4
   14668:	00f12423          	sw	a5,8(sp)
   1466c:	00000b13          	li	s6,0
   14670:	a55ff06f          	j	140c4 <_dtoa_r+0x79c>
   14674:	00090593          	mv	a1,s2
   14678:	00000693          	li	a3,0
   1467c:	00a00613          	li	a2,10
   14680:	00040513          	mv	a0,s0
   14684:	241030ef          	jal	ra,180c4 <__multadd>
   14688:	04012783          	lw	a5,64(sp)
   1468c:	00050913          	mv	s2,a0
   14690:	0cf052e3          	blez	a5,14f54 <_dtoa_r+0x162c>
   14694:	01412e23          	sw	s4,28(sp)
   14698:	00078a13          	mv	s4,a5
   1469c:	01905c63          	blez	s9,146b4 <_dtoa_r+0xd8c>
   146a0:	00090593          	mv	a1,s2
   146a4:	000c8613          	mv	a2,s9
   146a8:	00040513          	mv	a0,s0
   146ac:	2cc040ef          	jal	ra,18978 <__lshift>
   146b0:	00050913          	mv	s2,a0
   146b4:	00090b13          	mv	s6,s2
   146b8:	500c1e63          	bnez	s8,14bd4 <_dtoa_r+0x12ac>
   146bc:	02812783          	lw	a5,40(sp)
   146c0:	fffa8d13          	addi	s10,s5,-1
   146c4:	000a8c93          	mv	s9,s5
   146c8:	0017f793          	andi	a5,a5,1
   146cc:	014d0d33          	add	s10,s10,s4
   146d0:	00f12823          	sw	a5,16(sp)
   146d4:	01512a23          	sw	s5,20(sp)
   146d8:	01b12c23          	sw	s11,24(sp)
   146dc:	000b8593          	mv	a1,s7
   146e0:	00048513          	mv	a0,s1
   146e4:	810ff0ef          	jal	ra,136f4 <quorem>
   146e8:	00050c13          	mv	s8,a0
   146ec:	00090593          	mv	a1,s2
   146f0:	00048513          	mv	a0,s1
   146f4:	414040ef          	jal	ra,18b08 <__mcmp>
   146f8:	000b8593          	mv	a1,s7
   146fc:	00050a13          	mv	s4,a0
   14700:	000b0613          	mv	a2,s6
   14704:	00040513          	mv	a0,s0
   14708:	458040ef          	jal	ra,18b60 <__mdiff>
   1470c:	00c52703          	lw	a4,12(a0)
   14710:	00050593          	mv	a1,a0
   14714:	030c0a93          	addi	s5,s8,48
   14718:	08071a63          	bnez	a4,147ac <_dtoa_r+0xe84>
   1471c:	00a12423          	sw	a0,8(sp)
   14720:	00048513          	mv	a0,s1
   14724:	3e4040ef          	jal	ra,18b08 <__mcmp>
   14728:	00812583          	lw	a1,8(sp)
   1472c:	00050d93          	mv	s11,a0
   14730:	00040513          	mv	a0,s0
   14734:	16d030ef          	jal	ra,180a0 <_Bfree>
   14738:	01b9e633          	or	a2,s3,s11
   1473c:	0e061a63          	bnez	a2,14830 <_dtoa_r+0xf08>
   14740:	01012783          	lw	a5,16(sp)
   14744:	76078c63          	beqz	a5,14ebc <_dtoa_r+0x1594>
   14748:	780a4663          	bltz	s4,14ed4 <_dtoa_r+0x15ac>
   1474c:	015c8023          	sb	s5,0(s9)
   14750:	001c8a13          	addi	s4,s9,1
   14754:	699d0463          	beq	s10,s9,14ddc <_dtoa_r+0x14b4>
   14758:	00048593          	mv	a1,s1
   1475c:	00000693          	li	a3,0
   14760:	00a00613          	li	a2,10
   14764:	00040513          	mv	a0,s0
   14768:	15d030ef          	jal	ra,180c4 <__multadd>
   1476c:	00050493          	mv	s1,a0
   14770:	00090593          	mv	a1,s2
   14774:	00000693          	li	a3,0
   14778:	00a00613          	li	a2,10
   1477c:	00040513          	mv	a0,s0
   14780:	09690e63          	beq	s2,s6,1481c <_dtoa_r+0xef4>
   14784:	141030ef          	jal	ra,180c4 <__multadd>
   14788:	000b0593          	mv	a1,s6
   1478c:	00050913          	mv	s2,a0
   14790:	00000693          	li	a3,0
   14794:	00a00613          	li	a2,10
   14798:	00040513          	mv	a0,s0
   1479c:	129030ef          	jal	ra,180c4 <__multadd>
   147a0:	00050b13          	mv	s6,a0
   147a4:	000a0c93          	mv	s9,s4
   147a8:	f35ff06f          	j	146dc <_dtoa_r+0xdb4>
   147ac:	00040513          	mv	a0,s0
   147b0:	000a8d13          	mv	s10,s5
   147b4:	01812d83          	lw	s11,24(sp)
   147b8:	01412a83          	lw	s5,20(sp)
   147bc:	0e5030ef          	jal	ra,180a0 <_Bfree>
   147c0:	000a4a63          	bltz	s4,147d4 <_dtoa_r+0xeac>
   147c4:	001df713          	andi	a4,s11,1
   147c8:	0149ea33          	or	s4,s3,s4
   147cc:	01476733          	or	a4,a4,s4
   147d0:	08071063          	bnez	a4,14850 <_dtoa_r+0xf28>
   147d4:	00048593          	mv	a1,s1
   147d8:	00100613          	li	a2,1
   147dc:	00040513          	mv	a0,s0
   147e0:	198040ef          	jal	ra,18978 <__lshift>
   147e4:	000b8593          	mv	a1,s7
   147e8:	00050493          	mv	s1,a0
   147ec:	31c040ef          	jal	ra,18b08 <__mcmp>
   147f0:	24a05463          	blez	a0,14a38 <_dtoa_r+0x1110>
   147f4:	03900713          	li	a4,57
   147f8:	24ed0863          	beq	s10,a4,14a48 <_dtoa_r+0x1120>
   147fc:	031c0d13          	addi	s10,s8,49
   14800:	01c12783          	lw	a5,28(sp)
   14804:	00090993          	mv	s3,s2
   14808:	001c8713          	addi	a4,s9,1
   1480c:	01ac8023          	sb	s10,0(s9)
   14810:	00178c13          	addi	s8,a5,1
   14814:	000b0913          	mv	s2,s6
   14818:	cddff06f          	j	144f4 <_dtoa_r+0xbcc>
   1481c:	0a9030ef          	jal	ra,180c4 <__multadd>
   14820:	00050913          	mv	s2,a0
   14824:	00050b13          	mv	s6,a0
   14828:	000a0c93          	mv	s9,s4
   1482c:	eb1ff06f          	j	146dc <_dtoa_r+0xdb4>
   14830:	7c0a4663          	bltz	s4,14ffc <_dtoa_r+0x16d4>
   14834:	01012783          	lw	a5,16(sp)
   14838:	0149ea33          	or	s4,s3,s4
   1483c:	0147ea33          	or	s4,a5,s4
   14840:	7a0a0e63          	beqz	s4,14ffc <_dtoa_r+0x16d4>
   14844:	f1b054e3          	blez	s11,1474c <_dtoa_r+0xe24>
   14848:	000a8d13          	mv	s10,s5
   1484c:	01412a83          	lw	s5,20(sp)
   14850:	03900713          	li	a4,57
   14854:	1eed0a63          	beq	s10,a4,14a48 <_dtoa_r+0x1120>
   14858:	01c12683          	lw	a3,28(sp)
   1485c:	001d0793          	addi	a5,s10,1
   14860:	00090993          	mv	s3,s2
   14864:	001c8713          	addi	a4,s9,1
   14868:	00168c13          	addi	s8,a3,1 # 3ff00001 <__BSS_END__+0x3fedc1d1>
   1486c:	00fc8023          	sb	a5,0(s9)
   14870:	000b0913          	mv	s2,s6
   14874:	c81ff06f          	j	144f4 <_dtoa_r+0xbcc>
   14878:	00200793          	li	a5,2
   1487c:	bd37d8e3          	bge	a5,s3,1444c <_dtoa_r+0xb24>
   14880:	000a8713          	mv	a4,s5
   14884:	9a0a1ee3          	bnez	s4,14240 <_dtoa_r+0x918>
   14888:	000b8593          	mv	a1,s7
   1488c:	00000693          	li	a3,0
   14890:	00500613          	li	a2,5
   14894:	00040513          	mv	a0,s0
   14898:	01512423          	sw	s5,8(sp)
   1489c:	029030ef          	jal	ra,180c4 <__multadd>
   148a0:	00050593          	mv	a1,a0
   148a4:	00050b93          	mv	s7,a0
   148a8:	00048513          	mv	a0,s1
   148ac:	25c040ef          	jal	ra,18b08 <__mcmp>
   148b0:	00812703          	lw	a4,8(sp)
   148b4:	98a056e3          	blez	a0,14240 <_dtoa_r+0x918>
   148b8:	03100793          	li	a5,49
   148bc:	00fa8023          	sb	a5,0(s5)
   148c0:	01c12783          	lw	a5,28(sp)
   148c4:	001a8713          	addi	a4,s5,1
   148c8:	00178c13          	addi	s8,a5,1
   148cc:	000b8593          	mv	a1,s7
   148d0:	00040513          	mv	a0,s0
   148d4:	00e12423          	sw	a4,8(sp)
   148d8:	7c8030ef          	jal	ra,180a0 <_Bfree>
   148dc:	00812703          	lw	a4,8(sp)
   148e0:	001c0c13          	addi	s8,s8,1
   148e4:	c40910e3          	bnez	s2,14524 <_dtoa_r+0xbfc>
   148e8:	c51ff06f          	j	14538 <_dtoa_r+0xc10>
   148ec:	00050593          	mv	a1,a0
   148f0:	000c0613          	mv	a2,s8
   148f4:	00040513          	mv	a0,s0
   148f8:	731030ef          	jal	ra,18828 <__pow5mult>
   148fc:	00100793          	li	a5,1
   14900:	00050b93          	mv	s7,a0
   14904:	1137d263          	bge	a5,s3,14a08 <_dtoa_r+0x10e0>
   14908:	00000c13          	li	s8,0
   1490c:	010ba783          	lw	a5,16(s7)
   14910:	00378793          	addi	a5,a5,3
   14914:	00279793          	slli	a5,a5,0x2
   14918:	00fb87b3          	add	a5,s7,a5
   1491c:	0047a503          	lw	a0,4(a5)
   14920:	255030ef          	jal	ra,18374 <__hi0bits>
   14924:	02000793          	li	a5,32
   14928:	40a787b3          	sub	a5,a5,a0
   1492c:	abdff06f          	j	143e8 <_dtoa_r+0xac0>
   14930:	00100793          	li	a5,1
   14934:	02f12023          	sw	a5,32(sp)
   14938:	d09ff06f          	j	14640 <_dtoa_r+0xd18>
   1493c:	00100793          	li	a5,1
   14940:	00100a13          	li	s4,1
   14944:	00f12823          	sw	a5,16(sp)
   14948:	fa8ff06f          	j	140f0 <_dtoa_r+0x7c8>
   1494c:	02812783          	lw	a5,40(sp)
   14950:	02079c63          	bnez	a5,14988 <_dtoa_r+0x1060>
   14954:	00cd1793          	slli	a5,s10,0xc
   14958:	02079863          	bnez	a5,14988 <_dtoa_r+0x1060>
   1495c:	7ff007b7          	lui	a5,0x7ff00
   14960:	00fd77b3          	and	a5,s10,a5
   14964:	00000713          	li	a4,0
   14968:	00078c63          	beqz	a5,14980 <_dtoa_r+0x1058>
   1496c:	00812783          	lw	a5,8(sp)
   14970:	001b0b13          	addi	s6,s6,1
   14974:	00100713          	li	a4,1
   14978:	00178793          	addi	a5,a5,1 # 7ff00001 <__BSS_END__+0x7fedc1d1>
   1497c:	00f12423          	sw	a5,8(sp)
   14980:	560c1063          	bnez	s8,14ee0 <_dtoa_r+0x15b8>
   14984:	00070c13          	mv	s8,a4
   14988:	00100793          	li	a5,1
   1498c:	a5dff06f          	j	143e8 <_dtoa_r+0xac0>
   14990:	a8d708e3          	beq	a4,a3,14420 <_dtoa_r+0xaf8>
   14994:	03c00713          	li	a4,60
   14998:	40f707b3          	sub	a5,a4,a5
   1499c:	a71ff06f          	j	1440c <_dtoa_r+0xae4>
   149a0:	00051663          	bnez	a0,149ac <_dtoa_r+0x1084>
   149a4:	001d7793          	andi	a5,s10,1
   149a8:	b20794e3          	bnez	a5,144d0 <_dtoa_r+0xba8>
   149ac:	03000693          	li	a3,48
   149b0:	fffa4783          	lbu	a5,-1(s4)
   149b4:	000a0713          	mv	a4,s4
   149b8:	fffa0a13          	addi	s4,s4,-1
   149bc:	fed78ae3          	beq	a5,a3,149b0 <_dtoa_r+0x1088>
   149c0:	b35ff06f          	j	144f4 <_dtoa_r+0xbcc>
   149c4:	000b0793          	mv	a5,s6
   149c8:	9c9ff06f          	j	14390 <_dtoa_r+0xa68>
   149cc:	02c12783          	lw	a5,44(sp)
   149d0:	00812703          	lw	a4,8(sp)
   149d4:	03712623          	sw	s7,44(sp)
   149d8:	40fb87b3          	sub	a5,s7,a5
   149dc:	00fc0c33          	add	s8,s8,a5
   149e0:	014707b3          	add	a5,a4,s4
   149e4:	00070c93          	mv	s9,a4
   149e8:	014b0b33          	add	s6,s6,s4
   149ec:	00f12423          	sw	a5,8(sp)
   149f0:	00000b93          	li	s7,0
   149f4:	00100593          	li	a1,1
   149f8:	00040513          	mv	a0,s0
   149fc:	2d1030ef          	jal	ra,184cc <__i2b>
   14a00:	00050913          	mv	s2,a0
   14a04:	97dff06f          	j	14380 <_dtoa_r+0xa58>
   14a08:	02812783          	lw	a5,40(sp)
   14a0c:	ee079ee3          	bnez	a5,14908 <_dtoa_r+0xfe0>
   14a10:	00cd1793          	slli	a5,s10,0xc
   14a14:	ee079ae3          	bnez	a5,14908 <_dtoa_r+0xfe0>
   14a18:	f45ff06f          	j	1495c <_dtoa_r+0x1034>
   14a1c:	01412303          	lw	t1,20(sp)
   14a20:	01812883          	lw	a7,24(sp)
   14a24:	00200913          	li	s2,2
   14a28:	ae8ff06f          	j	13d10 <_dtoa_r+0x3e8>
   14a2c:	00200993          	li	s3,2
   14a30:	02012023          	sw	zero,32(sp)
   14a34:	c0dff06f          	j	14640 <_dtoa_r+0xd18>
   14a38:	dc0514e3          	bnez	a0,14800 <_dtoa_r+0xed8>
   14a3c:	001d7713          	andi	a4,s10,1
   14a40:	da071ae3          	bnez	a4,147f4 <_dtoa_r+0xecc>
   14a44:	dbdff06f          	j	14800 <_dtoa_r+0xed8>
   14a48:	03900793          	li	a5,57
   14a4c:	00fc8023          	sb	a5,0(s9)
   14a50:	01c12783          	lw	a5,28(sp)
   14a54:	00090993          	mv	s3,s2
   14a58:	001c8a13          	addi	s4,s9,1
   14a5c:	00178c13          	addi	s8,a5,1
   14a60:	000b0913          	mv	s2,s6
   14a64:	a6dff06f          	j	144d0 <_dtoa_r+0xba8>
   14a68:	02012023          	sw	zero,32(sp)
   14a6c:	9c8ff06f          	j	13c34 <_dtoa_r+0x30c>
   14a70:	03412703          	lw	a4,52(sp)
   14a74:	34070063          	beqz	a4,14db4 <_dtoa_r+0x148c>
   14a78:	00812703          	lw	a4,8(sp)
   14a7c:	43378793          	addi	a5,a5,1075
   14a80:	00fb0b33          	add	s6,s6,a5
   14a84:	00f707b3          	add	a5,a4,a5
   14a88:	02c12b83          	lw	s7,44(sp)
   14a8c:	00070c93          	mv	s9,a4
   14a90:	00f12423          	sw	a5,8(sp)
   14a94:	f61ff06f          	j	149f4 <_dtoa_r+0x10cc>
   14a98:	03100793          	li	a5,49
   14a9c:	00fa8023          	sb	a5,0(s5)
   14aa0:	001c0c13          	addi	s8,s8,1
   14aa4:	a51ff06f          	j	144f4 <_dtoa_r+0xbcc>
   14aa8:	01c12783          	lw	a5,28(sp)
   14aac:	3c078c63          	beqz	a5,14e84 <_dtoa_r+0x155c>
   14ab0:	40f00cb3          	neg	s9,a5
   14ab4:	00fcf793          	andi	a5,s9,15
   14ab8:	00379793          	slli	a5,a5,0x3
   14abc:	0000d917          	auipc	s2,0xd
   14ac0:	59490913          	addi	s2,s2,1428 # 22050 <__mprec_tens>
   14ac4:	00f907b3          	add	a5,s2,a5
   14ac8:	0007a603          	lw	a2,0(a5)
   14acc:	0047a683          	lw	a3,4(a5)
   14ad0:	01412503          	lw	a0,20(sp)
   14ad4:	01812583          	lw	a1,24(sp)
   14ad8:	404cdc93          	srai	s9,s9,0x4
   14adc:	4140b0ef          	jal	ra,1fef0 <__muldf3>
   14ae0:	480c8863          	beqz	s9,14f70 <_dtoa_r+0x1648>
   14ae4:	00200913          	li	s2,2
   14ae8:	000d8713          	mv	a4,s11
   14aec:	0000d817          	auipc	a6,0xd
   14af0:	53c80813          	addi	a6,a6,1340 # 22028 <__mprec_bigtens>
   14af4:	02912c23          	sw	s1,56(sp)
   14af8:	04812223          	sw	s0,68(sp)
   14afc:	00050793          	mv	a5,a0
   14b00:	00090413          	mv	s0,s2
   14b04:	00000693          	li	a3,0
   14b08:	00080493          	mv	s1,a6
   14b0c:	00050913          	mv	s2,a0
   14b10:	00058d93          	mv	s11,a1
   14b14:	00070b93          	mv	s7,a4
   14b18:	001cf713          	andi	a4,s9,1
   14b1c:	02070063          	beqz	a4,14b3c <_dtoa_r+0x1214>
   14b20:	0044a683          	lw	a3,4(s1)
   14b24:	0004a603          	lw	a2,0(s1)
   14b28:	00078513          	mv	a0,a5
   14b2c:	00140413          	addi	s0,s0,1
   14b30:	3c00b0ef          	jal	ra,1fef0 <__muldf3>
   14b34:	00050793          	mv	a5,a0
   14b38:	00100693          	li	a3,1
   14b3c:	401cdc93          	srai	s9,s9,0x1
   14b40:	00848493          	addi	s1,s1,8
   14b44:	fc0c9ae3          	bnez	s9,14b18 <_dtoa_r+0x11f0>
   14b48:	000b8713          	mv	a4,s7
   14b4c:	00090513          	mv	a0,s2
   14b50:	00058b93          	mv	s7,a1
   14b54:	00040913          	mv	s2,s0
   14b58:	000d8593          	mv	a1,s11
   14b5c:	03812483          	lw	s1,56(sp)
   14b60:	04412403          	lw	s0,68(sp)
   14b64:	00070d93          	mv	s11,a4
   14b68:	a2069863          	bnez	a3,13d98 <_dtoa_r+0x470>
   14b6c:	00050793          	mv	a5,a0
   14b70:	00058b93          	mv	s7,a1
   14b74:	a24ff06f          	j	13d98 <_dtoa_r+0x470>
   14b78:	00070613          	mv	a2,a4
   14b7c:	00070513          	mv	a0,a4
   14b80:	00068593          	mv	a1,a3
   14b84:	785090ef          	jal	ra,1eb08 <__adddf3>
   14b88:	01c12783          	lw	a5,28(sp)
   14b8c:	00090613          	mv	a2,s2
   14b90:	00098693          	mv	a3,s3
   14b94:	00178c13          	addi	s8,a5,1
   14b98:	00050b13          	mv	s6,a0
   14b9c:	00058a13          	mv	s4,a1
   14ba0:	14c0b0ef          	jal	ra,1fcec <__gedf2>
   14ba4:	000c0c93          	mv	s9,s8
   14ba8:	c6a04663          	bgtz	a0,14014 <_dtoa_r+0x6ec>
   14bac:	000b0513          	mv	a0,s6
   14bb0:	000a0593          	mv	a1,s4
   14bb4:	00090613          	mv	a2,s2
   14bb8:	00098693          	mv	a3,s3
   14bbc:	0a40b0ef          	jal	ra,1fc60 <__eqdf2>
   14bc0:	00051663          	bnez	a0,14bcc <_dtoa_r+0x12a4>
   14bc4:	001d7d13          	andi	s10,s10,1
   14bc8:	c40d1663          	bnez	s10,14014 <_dtoa_r+0x6ec>
   14bcc:	000b8713          	mv	a4,s7
   14bd0:	969ff06f          	j	14538 <_dtoa_r+0xc10>
   14bd4:	00492583          	lw	a1,4(s2)
   14bd8:	00040513          	mv	a0,s0
   14bdc:	41c030ef          	jal	ra,17ff8 <_Balloc>
   14be0:	00050b13          	mv	s6,a0
   14be4:	3e050e63          	beqz	a0,14fe0 <_dtoa_r+0x16b8>
   14be8:	01092603          	lw	a2,16(s2)
   14bec:	00c90593          	addi	a1,s2,12
   14bf0:	00c50513          	addi	a0,a0,12
   14bf4:	00260613          	addi	a2,a2,2
   14bf8:	00261613          	slli	a2,a2,0x2
   14bfc:	248030ef          	jal	ra,17e44 <memcpy>
   14c00:	000b0593          	mv	a1,s6
   14c04:	00100613          	li	a2,1
   14c08:	00040513          	mv	a0,s0
   14c0c:	56d030ef          	jal	ra,18978 <__lshift>
   14c10:	00050b13          	mv	s6,a0
   14c14:	aa9ff06f          	j	146bc <_dtoa_r+0xd94>
   14c18:	00090593          	mv	a1,s2
   14c1c:	000b8613          	mv	a2,s7
   14c20:	00040513          	mv	a0,s0
   14c24:	405030ef          	jal	ra,18828 <__pow5mult>
   14c28:	00048613          	mv	a2,s1
   14c2c:	00050593          	mv	a1,a0
   14c30:	00050913          	mv	s2,a0
   14c34:	00040513          	mv	a0,s0
   14c38:	145030ef          	jal	ra,1857c <__multiply>
   14c3c:	02c12783          	lw	a5,44(sp)
   14c40:	00a12a23          	sw	a0,20(sp)
   14c44:	00048593          	mv	a1,s1
   14c48:	41778bb3          	sub	s7,a5,s7
   14c4c:	00040513          	mv	a0,s0
   14c50:	03712623          	sw	s7,44(sp)
   14c54:	44c030ef          	jal	ra,180a0 <_Bfree>
   14c58:	01412783          	lw	a5,20(sp)
   14c5c:	00078493          	mv	s1,a5
   14c60:	f60b8663          	beqz	s7,143cc <_dtoa_r+0xaa4>
   14c64:	f54ff06f          	j	143b8 <_dtoa_r+0xa90>
   14c68:	05012603          	lw	a2,80(sp)
   14c6c:	05412683          	lw	a3,84(sp)
   14c70:	04b12423          	sw	a1,72(sp)
   14c74:	00078513          	mv	a0,a5
   14c78:	000b8593          	mv	a1,s7
   14c7c:	03012a23          	sw	a6,52(sp)
   14c80:	02e12023          	sw	a4,32(sp)
   14c84:	26c0b0ef          	jal	ra,1fef0 <__muldf3>
   14c88:	03412803          	lw	a6,52(sp)
   14c8c:	04412783          	lw	a5,68(sp)
   14c90:	00100693          	li	a3,1
   14c94:	010a8023          	sb	a6,0(s5)
   14c98:	02a12a23          	sw	a0,52(sp)
   14c9c:	02b12c23          	sw	a1,56(sp)
   14ca0:	02012703          	lw	a4,32(sp)
   14ca4:	04812883          	lw	a7,72(sp)
   14ca8:	00fa8bb3          	add	s7,s5,a5
   14cac:	0000f617          	auipc	a2,0xf
   14cb0:	e1c60613          	addi	a2,a2,-484 # 23ac8 <__SDATA_BEGIN__+0x48>
   14cb4:	2ad78a63          	beq	a5,a3,14f68 <_dtoa_r+0x1640>
   14cb8:	00062783          	lw	a5,0(a2)
   14cbc:	00462803          	lw	a6,4(a2)
   14cc0:	04812423          	sw	s0,72(sp)
   14cc4:	02f12023          	sw	a5,32(sp)
   14cc8:	03012223          	sw	a6,36(sp)
   14ccc:	04912223          	sw	s1,68(sp)
   14cd0:	00070413          	mv	s0,a4
   14cd4:	05212623          	sw	s2,76(sp)
   14cd8:	000c8513          	mv	a0,s9
   14cdc:	00088593          	mv	a1,a7
   14ce0:	02012603          	lw	a2,32(sp)
   14ce4:	02412683          	lw	a3,36(sp)
   14ce8:	00140413          	addi	s0,s0,1
   14cec:	2040b0ef          	jal	ra,1fef0 <__muldf3>
   14cf0:	00058493          	mv	s1,a1
   14cf4:	00050913          	mv	s2,a0
   14cf8:	33c0c0ef          	jal	ra,21034 <__fixdfsi>
   14cfc:	00050c93          	mv	s9,a0
   14d00:	3b80c0ef          	jal	ra,210b8 <__floatsidf>
   14d04:	00050613          	mv	a2,a0
   14d08:	00058693          	mv	a3,a1
   14d0c:	00090513          	mv	a0,s2
   14d10:	00048593          	mv	a1,s1
   14d14:	030c8c93          	addi	s9,s9,48
   14d18:	1b50b0ef          	jal	ra,206cc <__subdf3>
   14d1c:	ff940fa3          	sb	s9,-1(s0)
   14d20:	fd7410e3          	bne	s0,s7,14ce0 <_dtoa_r+0x13b8>
   14d24:	04412483          	lw	s1,68(sp)
   14d28:	04812403          	lw	s0,72(sp)
   14d2c:	04c12903          	lw	s2,76(sp)
   14d30:	00050c93          	mv	s9,a0
   14d34:	00058893          	mv	a7,a1
   14d38:	0000f797          	auipc	a5,0xf
   14d3c:	d6078793          	addi	a5,a5,-672 # 23a98 <__SDATA_BEGIN__+0x18>
   14d40:	0007a603          	lw	a2,0(a5)
   14d44:	0047a683          	lw	a3,4(a5)
   14d48:	03412503          	lw	a0,52(sp)
   14d4c:	03812583          	lw	a1,56(sp)
   14d50:	03112023          	sw	a7,32(sp)
   14d54:	5b5090ef          	jal	ra,1eb08 <__adddf3>
   14d58:	02012883          	lw	a7,32(sp)
   14d5c:	000c8613          	mv	a2,s9
   14d60:	00088693          	mv	a3,a7
   14d64:	08c0b0ef          	jal	ra,1fdf0 <__ledf2>
   14d68:	18054063          	bltz	a0,14ee8 <_dtoa_r+0x15c0>
   14d6c:	0000f797          	auipc	a5,0xf
   14d70:	d2c78793          	addi	a5,a5,-724 # 23a98 <__SDATA_BEGIN__+0x18>
   14d74:	03412603          	lw	a2,52(sp)
   14d78:	03812683          	lw	a3,56(sp)
   14d7c:	0007a503          	lw	a0,0(a5)
   14d80:	0047a583          	lw	a1,4(a5)
   14d84:	1490b0ef          	jal	ra,206cc <__subdf3>
   14d88:	02012883          	lw	a7,32(sp)
   14d8c:	000c8613          	mv	a2,s9
   14d90:	00088693          	mv	a3,a7
   14d94:	7590a0ef          	jal	ra,1fcec <__gedf2>
   14d98:	16a04a63          	bgtz	a0,14f0c <_dtoa_r+0x15e4>
   14d9c:	06c12783          	lw	a5,108(sp)
   14da0:	dc07c863          	bltz	a5,14370 <_dtoa_r+0xa48>
   14da4:	01c12703          	lw	a4,28(sp)
   14da8:	00e00793          	li	a5,14
   14dac:	dce7c263          	blt	a5,a4,14370 <_dtoa_r+0xa48>
   14db0:	c2cff06f          	j	141dc <_dtoa_r+0x8b4>
   14db4:	06812703          	lw	a4,104(sp)
   14db8:	00812683          	lw	a3,8(sp)
   14dbc:	03600793          	li	a5,54
   14dc0:	40e787b3          	sub	a5,a5,a4
   14dc4:	00fb0b33          	add	s6,s6,a5
   14dc8:	00f687b3          	add	a5,a3,a5
   14dcc:	02c12b83          	lw	s7,44(sp)
   14dd0:	00068c93          	mv	s9,a3
   14dd4:	00f12423          	sw	a5,8(sp)
   14dd8:	c1dff06f          	j	149f4 <_dtoa_r+0x10cc>
   14ddc:	01c12783          	lw	a5,28(sp)
   14de0:	000a8d13          	mv	s10,s5
   14de4:	00090993          	mv	s3,s2
   14de8:	01412a83          	lw	s5,20(sp)
   14dec:	00178c13          	addi	s8,a5,1
   14df0:	000b0913          	mv	s2,s6
   14df4:	ebcff06f          	j	144b0 <_dtoa_r+0xb88>
   14df8:	b20a0263          	beqz	s4,1411c <_dtoa_r+0x7f4>
   14dfc:	04012c83          	lw	s9,64(sp)
   14e00:	bd905063          	blez	s9,141c0 <_dtoa_r+0x898>
   14e04:	0000f617          	auipc	a2,0xf
   14e08:	cc460613          	addi	a2,a2,-828 # 23ac8 <__SDATA_BEGIN__+0x48>
   14e0c:	00462683          	lw	a3,4(a2)
   14e10:	00062603          	lw	a2,0(a2)
   14e14:	00078513          	mv	a0,a5
   14e18:	000b8593          	mv	a1,s7
   14e1c:	0d40b0ef          	jal	ra,1fef0 <__muldf3>
   14e20:	00050793          	mv	a5,a0
   14e24:	00190513          	addi	a0,s2,1
   14e28:	02f12c23          	sw	a5,56(sp)
   14e2c:	00058b93          	mv	s7,a1
   14e30:	2880c0ef          	jal	ra,210b8 <__floatsidf>
   14e34:	03812783          	lw	a5,56(sp)
   14e38:	000b8693          	mv	a3,s7
   14e3c:	00078613          	mv	a2,a5
   14e40:	04f12423          	sw	a5,72(sp)
   14e44:	0ac0b0ef          	jal	ra,1fef0 <__muldf3>
   14e48:	0000f717          	auipc	a4,0xf
   14e4c:	c8870713          	addi	a4,a4,-888 # 23ad0 <__SDATA_BEGIN__+0x50>
   14e50:	01c12783          	lw	a5,28(sp)
   14e54:	00072603          	lw	a2,0(a4)
   14e58:	00472683          	lw	a3,4(a4)
   14e5c:	fff78793          	addi	a5,a5,-1
   14e60:	04f12c23          	sw	a5,88(sp)
   14e64:	05912223          	sw	s9,68(sp)
   14e68:	4a1090ef          	jal	ra,1eb08 <__adddf3>
   14e6c:	fcc00737          	lui	a4,0xfcc00
   14e70:	00b707b3          	add	a5,a4,a1
   14e74:	02f12c23          	sw	a5,56(sp)
   14e78:	00050c93          	mv	s9,a0
   14e7c:	04812783          	lw	a5,72(sp)
   14e80:	fa5fe06f          	j	13e24 <_dtoa_r+0x4fc>
   14e84:	01412783          	lw	a5,20(sp)
   14e88:	01812b83          	lw	s7,24(sp)
   14e8c:	00200913          	li	s2,2
   14e90:	f09fe06f          	j	13d98 <_dtoa_r+0x470>
   14e94:	03100693          	li	a3,49
   14e98:	001c8c93          	addi	s9,s9,1
   14e9c:	99cff06f          	j	14038 <_dtoa_r+0x710>
   14ea0:	00000b93          	li	s7,0
   14ea4:	00000913          	li	s2,0
   14ea8:	a11ff06f          	j	148b8 <_dtoa_r+0xf90>
   14eac:	000b0713          	mv	a4,s6
   14eb0:	05812783          	lw	a5,88(sp)
   14eb4:	00178c13          	addi	s8,a5,1
   14eb8:	e80ff06f          	j	14538 <_dtoa_r+0xc10>
   14ebc:	000a8d13          	mv	s10,s5
   14ec0:	03900713          	li	a4,57
   14ec4:	01412a83          	lw	s5,20(sp)
   14ec8:	b8ed00e3          	beq	s10,a4,14a48 <_dtoa_r+0x1120>
   14ecc:	934048e3          	bgtz	s4,147fc <_dtoa_r+0xed4>
   14ed0:	931ff06f          	j	14800 <_dtoa_r+0xed8>
   14ed4:	000a8d13          	mv	s10,s5
   14ed8:	01412a83          	lw	s5,20(sp)
   14edc:	925ff06f          	j	14800 <_dtoa_r+0xed8>
   14ee0:	00070c13          	mv	s8,a4
   14ee4:	a29ff06f          	j	1490c <_dtoa_r+0xfe4>
   14ee8:	05812783          	lw	a5,88(sp)
   14eec:	00178c93          	addi	s9,a5,1
   14ef0:	924ff06f          	j	14014 <_dtoa_r+0x6ec>
   14ef4:	04812c03          	lw	s8,72(sp)
   14ef8:	04c12b03          	lw	s6,76(sp)
   14efc:	05012a03          	lw	s4,80(sp)
   14f00:	04412983          	lw	s3,68(sp)
   14f04:	05c12d03          	lw	s10,92(sp)
   14f08:	ab8ff06f          	j	141c0 <_dtoa_r+0x898>
   14f0c:	03000613          	li	a2,48
   14f10:	fffbc783          	lbu	a5,-1(s7)
   14f14:	000b8713          	mv	a4,s7
   14f18:	fffb8b93          	addi	s7,s7,-1
   14f1c:	fec78ae3          	beq	a5,a2,14f10 <_dtoa_r+0x15e8>
   14f20:	f91ff06f          	j	14eb0 <_dtoa_r+0x1588>
   14f24:	00200793          	li	a5,2
   14f28:	0337c063          	blt	a5,s3,14f48 <_dtoa_r+0x1620>
   14f2c:	000b8593          	mv	a1,s7
   14f30:	fc4fe0ef          	jal	ra,136f4 <quorem>
   14f34:	03050d13          	addi	s10,a0,48
   14f38:	01c12c03          	lw	s8,28(sp)
   14f3c:	04012a03          	lw	s4,64(sp)
   14f40:	01aa8023          	sb	s10,0(s5)
   14f44:	d58ff06f          	j	1449c <_dtoa_r+0xb74>
   14f48:	01412e23          	sw	s4,28(sp)
   14f4c:	04012a03          	lw	s4,64(sp)
   14f50:	931ff06f          	j	14880 <_dtoa_r+0xf58>
   14f54:	00200793          	li	a5,2
   14f58:	ff37c8e3          	blt	a5,s3,14f48 <_dtoa_r+0x1620>
   14f5c:	01412e23          	sw	s4,28(sp)
   14f60:	04012a03          	lw	s4,64(sp)
   14f64:	f38ff06f          	j	1469c <_dtoa_r+0xd74>
   14f68:	00070b93          	mv	s7,a4
   14f6c:	dcdff06f          	j	14d38 <_dtoa_r+0x1410>
   14f70:	00050793          	mv	a5,a0
   14f74:	00058b93          	mv	s7,a1
   14f78:	00200913          	li	s2,2
   14f7c:	e1dfe06f          	j	13d98 <_dtoa_r+0x470>
   14f80:	0000d697          	auipc	a3,0xd
   14f84:	a8068693          	addi	a3,a3,-1408 # 21a00 <blanks.1+0x20>
   14f88:	00000613          	li	a2,0
   14f8c:	1aa00593          	li	a1,426
   14f90:	0000d517          	auipc	a0,0xd
   14f94:	a8450513          	addi	a0,a0,-1404 # 21a14 <blanks.1+0x34>
   14f98:	56d060ef          	jal	ra,1bd04 <__assert_func>
   14f9c:	04042223          	sw	zero,68(s0)
   14fa0:	00000593          	li	a1,0
   14fa4:	cddfe06f          	j	13c80 <_dtoa_r+0x358>
   14fa8:	04042223          	sw	zero,68(s0)
   14fac:	00000593          	li	a1,0
   14fb0:	00040513          	mv	a0,s0
   14fb4:	044030ef          	jal	ra,17ff8 <_Balloc>
   14fb8:	00050a93          	mv	s5,a0
   14fbc:	fc0502e3          	beqz	a0,14f80 <_dtoa_r+0x1658>
   14fc0:	00100793          	li	a5,1
   14fc4:	02f12023          	sw	a5,32(sp)
   14fc8:	fff00793          	li	a5,-1
   14fcc:	04a42023          	sw	a0,64(s0)
   14fd0:	04f12023          	sw	a5,64(sp)
   14fd4:	00012823          	sw	zero,16(sp)
   14fd8:	fff00a13          	li	s4,-1
   14fdc:	9e4ff06f          	j	141c0 <_dtoa_r+0x898>
   14fe0:	0000d697          	auipc	a3,0xd
   14fe4:	a2068693          	addi	a3,a3,-1504 # 21a00 <blanks.1+0x20>
   14fe8:	00000613          	li	a2,0
   14fec:	2ea00593          	li	a1,746
   14ff0:	0000d517          	auipc	a0,0xd
   14ff4:	a2450513          	addi	a0,a0,-1500 # 21a14 <blanks.1+0x34>
   14ff8:	50d060ef          	jal	ra,1bd04 <__assert_func>
   14ffc:	000a8d13          	mv	s10,s5
   15000:	01412a83          	lw	s5,20(sp)
   15004:	ffb05e63          	blez	s11,14800 <_dtoa_r+0xed8>
   15008:	fccff06f          	j	147d4 <_dtoa_r+0xeac>

0001500c <__sflush_r>:
   1500c:	00c59783          	lh	a5,12(a1)
   15010:	fe010113          	addi	sp,sp,-32
   15014:	00812c23          	sw	s0,24(sp)
   15018:	01312623          	sw	s3,12(sp)
   1501c:	00112e23          	sw	ra,28(sp)
   15020:	00912a23          	sw	s1,20(sp)
   15024:	01212823          	sw	s2,16(sp)
   15028:	0087f713          	andi	a4,a5,8
   1502c:	00058413          	mv	s0,a1
   15030:	00050993          	mv	s3,a0
   15034:	12071263          	bnez	a4,15158 <__sflush_r+0x14c>
   15038:	00001737          	lui	a4,0x1
   1503c:	80070713          	addi	a4,a4,-2048 # 800 <exit-0xf894>
   15040:	0045a683          	lw	a3,4(a1)
   15044:	00e7e733          	or	a4,a5,a4
   15048:	00e59623          	sh	a4,12(a1)
   1504c:	18d05863          	blez	a3,151dc <__sflush_r+0x1d0>
   15050:	02842803          	lw	a6,40(s0)
   15054:	0e080263          	beqz	a6,15138 <__sflush_r+0x12c>
   15058:	00c7d793          	srli	a5,a5,0xc
   1505c:	0009a483          	lw	s1,0(s3)
   15060:	0017f793          	andi	a5,a5,1
   15064:	0009a023          	sw	zero,0(s3)
   15068:	01c42583          	lw	a1,28(s0)
   1506c:	18079063          	bnez	a5,151ec <__sflush_r+0x1e0>
   15070:	00000613          	li	a2,0
   15074:	00100693          	li	a3,1
   15078:	00098513          	mv	a0,s3
   1507c:	000800e7          	jalr	a6
   15080:	fff00793          	li	a5,-1
   15084:	00050613          	mv	a2,a0
   15088:	1af50063          	beq	a0,a5,15228 <__sflush_r+0x21c>
   1508c:	00c41703          	lh	a4,12(s0)
   15090:	02842803          	lw	a6,40(s0)
   15094:	01c42583          	lw	a1,28(s0)
   15098:	00477713          	andi	a4,a4,4
   1509c:	00070e63          	beqz	a4,150b8 <__sflush_r+0xac>
   150a0:	00442703          	lw	a4,4(s0)
   150a4:	03042783          	lw	a5,48(s0)
   150a8:	40e60633          	sub	a2,a2,a4
   150ac:	00078663          	beqz	a5,150b8 <__sflush_r+0xac>
   150b0:	03c42783          	lw	a5,60(s0)
   150b4:	40f60633          	sub	a2,a2,a5
   150b8:	00000693          	li	a3,0
   150bc:	00098513          	mv	a0,s3
   150c0:	000800e7          	jalr	a6
   150c4:	fff00793          	li	a5,-1
   150c8:	12f51663          	bne	a0,a5,151f4 <__sflush_r+0x1e8>
   150cc:	0009a683          	lw	a3,0(s3)
   150d0:	01d00793          	li	a5,29
   150d4:	0cd7ee63          	bltu	a5,a3,151b0 <__sflush_r+0x1a4>
   150d8:	dfc00737          	lui	a4,0xdfc00
   150dc:	ffe70713          	addi	a4,a4,-2 # dfbffffe <__BSS_END__+0xdfbdc1ce>
   150e0:	40d75733          	sra	a4,a4,a3
   150e4:	00177713          	andi	a4,a4,1
   150e8:	00c41783          	lh	a5,12(s0)
   150ec:	0c071463          	bnez	a4,151b4 <__sflush_r+0x1a8>
   150f0:	01042603          	lw	a2,16(s0)
   150f4:	fffff737          	lui	a4,0xfffff
   150f8:	7ff70713          	addi	a4,a4,2047 # fffff7ff <__BSS_END__+0xfffdb9cf>
   150fc:	00e7f733          	and	a4,a5,a4
   15100:	00c7d793          	srli	a5,a5,0xc
   15104:	00e41623          	sh	a4,12(s0)
   15108:	00042223          	sw	zero,4(s0)
   1510c:	00c42023          	sw	a2,0(s0)
   15110:	0017f793          	andi	a5,a5,1
   15114:	12079c63          	bnez	a5,1524c <__sflush_r+0x240>
   15118:	03042583          	lw	a1,48(s0)
   1511c:	0099a023          	sw	s1,0(s3)
   15120:	00058c63          	beqz	a1,15138 <__sflush_r+0x12c>
   15124:	04040793          	addi	a5,s0,64
   15128:	00f58663          	beq	a1,a5,15134 <__sflush_r+0x128>
   1512c:	00098513          	mv	a0,s3
   15130:	075000ef          	jal	ra,159a4 <_free_r>
   15134:	02042823          	sw	zero,48(s0)
   15138:	00000513          	li	a0,0
   1513c:	01c12083          	lw	ra,28(sp)
   15140:	01812403          	lw	s0,24(sp)
   15144:	01412483          	lw	s1,20(sp)
   15148:	01012903          	lw	s2,16(sp)
   1514c:	00c12983          	lw	s3,12(sp)
   15150:	02010113          	addi	sp,sp,32
   15154:	00008067          	ret
   15158:	0105a903          	lw	s2,16(a1)
   1515c:	fc090ee3          	beqz	s2,15138 <__sflush_r+0x12c>
   15160:	0005a483          	lw	s1,0(a1)
   15164:	0037f793          	andi	a5,a5,3
   15168:	0125a023          	sw	s2,0(a1)
   1516c:	412484b3          	sub	s1,s1,s2
   15170:	00000713          	li	a4,0
   15174:	00079463          	bnez	a5,1517c <__sflush_r+0x170>
   15178:	0145a703          	lw	a4,20(a1)
   1517c:	00e42423          	sw	a4,8(s0)
   15180:	00904863          	bgtz	s1,15190 <__sflush_r+0x184>
   15184:	fb5ff06f          	j	15138 <__sflush_r+0x12c>
   15188:	00a90933          	add	s2,s2,a0
   1518c:	fa9056e3          	blez	s1,15138 <__sflush_r+0x12c>
   15190:	02442783          	lw	a5,36(s0)
   15194:	01c42583          	lw	a1,28(s0)
   15198:	00048693          	mv	a3,s1
   1519c:	00090613          	mv	a2,s2
   151a0:	00098513          	mv	a0,s3
   151a4:	000780e7          	jalr	a5
   151a8:	40a484b3          	sub	s1,s1,a0
   151ac:	fca04ee3          	bgtz	a0,15188 <__sflush_r+0x17c>
   151b0:	00c41783          	lh	a5,12(s0)
   151b4:	0407e793          	ori	a5,a5,64
   151b8:	01c12083          	lw	ra,28(sp)
   151bc:	00f41623          	sh	a5,12(s0)
   151c0:	01812403          	lw	s0,24(sp)
   151c4:	01412483          	lw	s1,20(sp)
   151c8:	01012903          	lw	s2,16(sp)
   151cc:	00c12983          	lw	s3,12(sp)
   151d0:	fff00513          	li	a0,-1
   151d4:	02010113          	addi	sp,sp,32
   151d8:	00008067          	ret
   151dc:	03c5a683          	lw	a3,60(a1)
   151e0:	e6d048e3          	bgtz	a3,15050 <__sflush_r+0x44>
   151e4:	00000513          	li	a0,0
   151e8:	f55ff06f          	j	1513c <__sflush_r+0x130>
   151ec:	05042603          	lw	a2,80(s0)
   151f0:	ea9ff06f          	j	15098 <__sflush_r+0x8c>
   151f4:	00c41783          	lh	a5,12(s0)
   151f8:	01042683          	lw	a3,16(s0)
   151fc:	fffff737          	lui	a4,0xfffff
   15200:	7ff70713          	addi	a4,a4,2047 # fffff7ff <__BSS_END__+0xfffdb9cf>
   15204:	00e7f733          	and	a4,a5,a4
   15208:	00c7d793          	srli	a5,a5,0xc
   1520c:	00e41623          	sh	a4,12(s0)
   15210:	00042223          	sw	zero,4(s0)
   15214:	00d42023          	sw	a3,0(s0)
   15218:	0017f793          	andi	a5,a5,1
   1521c:	ee078ee3          	beqz	a5,15118 <__sflush_r+0x10c>
   15220:	04a42823          	sw	a0,80(s0)
   15224:	ef5ff06f          	j	15118 <__sflush_r+0x10c>
   15228:	0009a783          	lw	a5,0(s3)
   1522c:	e60780e3          	beqz	a5,1508c <__sflush_r+0x80>
   15230:	01d00713          	li	a4,29
   15234:	00e78663          	beq	a5,a4,15240 <__sflush_r+0x234>
   15238:	01600713          	li	a4,22
   1523c:	f6e79ae3          	bne	a5,a4,151b0 <__sflush_r+0x1a4>
   15240:	0099a023          	sw	s1,0(s3)
   15244:	00000513          	li	a0,0
   15248:	ef5ff06f          	j	1513c <__sflush_r+0x130>
   1524c:	ec0696e3          	bnez	a3,15118 <__sflush_r+0x10c>
   15250:	04a42823          	sw	a0,80(s0)
   15254:	ec5ff06f          	j	15118 <__sflush_r+0x10c>

00015258 <_fflush_r>:
   15258:	ff010113          	addi	sp,sp,-16
   1525c:	00812423          	sw	s0,8(sp)
   15260:	00912223          	sw	s1,4(sp)
   15264:	00112623          	sw	ra,12(sp)
   15268:	01212023          	sw	s2,0(sp)
   1526c:	00050493          	mv	s1,a0
   15270:	00058413          	mv	s0,a1
   15274:	00050663          	beqz	a0,15280 <_fflush_r+0x28>
   15278:	03852783          	lw	a5,56(a0)
   1527c:	06078463          	beqz	a5,152e4 <_fflush_r+0x8c>
   15280:	00c41783          	lh	a5,12(s0)
   15284:	00000913          	li	s2,0
   15288:	04078063          	beqz	a5,152c8 <_fflush_r+0x70>
   1528c:	06442703          	lw	a4,100(s0)
   15290:	00177713          	andi	a4,a4,1
   15294:	00071663          	bnez	a4,152a0 <_fflush_r+0x48>
   15298:	2007f793          	andi	a5,a5,512
   1529c:	04078863          	beqz	a5,152ec <_fflush_r+0x94>
   152a0:	00040593          	mv	a1,s0
   152a4:	00048513          	mv	a0,s1
   152a8:	d65ff0ef          	jal	ra,1500c <__sflush_r>
   152ac:	06442783          	lw	a5,100(s0)
   152b0:	00050913          	mv	s2,a0
   152b4:	0017f793          	andi	a5,a5,1
   152b8:	00079863          	bnez	a5,152c8 <_fflush_r+0x70>
   152bc:	00c45783          	lhu	a5,12(s0)
   152c0:	2007f793          	andi	a5,a5,512
   152c4:	04078863          	beqz	a5,15314 <_fflush_r+0xbc>
   152c8:	00c12083          	lw	ra,12(sp)
   152cc:	00812403          	lw	s0,8(sp)
   152d0:	00412483          	lw	s1,4(sp)
   152d4:	00090513          	mv	a0,s2
   152d8:	00012903          	lw	s2,0(sp)
   152dc:	01010113          	addi	sp,sp,16
   152e0:	00008067          	ret
   152e4:	22c000ef          	jal	ra,15510 <__sinit>
   152e8:	f99ff06f          	j	15280 <_fflush_r+0x28>
   152ec:	05842503          	lw	a0,88(s0)
   152f0:	7a8010ef          	jal	ra,16a98 <__retarget_lock_acquire_recursive>
   152f4:	00040593          	mv	a1,s0
   152f8:	00048513          	mv	a0,s1
   152fc:	d11ff0ef          	jal	ra,1500c <__sflush_r>
   15300:	06442783          	lw	a5,100(s0)
   15304:	00050913          	mv	s2,a0
   15308:	0017f793          	andi	a5,a5,1
   1530c:	fa079ee3          	bnez	a5,152c8 <_fflush_r+0x70>
   15310:	fadff06f          	j	152bc <_fflush_r+0x64>
   15314:	05842503          	lw	a0,88(s0)
   15318:	798010ef          	jal	ra,16ab0 <__retarget_lock_release_recursive>
   1531c:	00c12083          	lw	ra,12(sp)
   15320:	00812403          	lw	s0,8(sp)
   15324:	00412483          	lw	s1,4(sp)
   15328:	00090513          	mv	a0,s2
   1532c:	00012903          	lw	s2,0(sp)
   15330:	01010113          	addi	sp,sp,16
   15334:	00008067          	ret

00015338 <fflush>:
   15338:	0a050a63          	beqz	a0,153ec <fflush+0xb4>
   1533c:	ff010113          	addi	sp,sp,-16
   15340:	00812423          	sw	s0,8(sp)
   15344:	01212023          	sw	s2,0(sp)
   15348:	00112623          	sw	ra,12(sp)
   1534c:	00912223          	sw	s1,4(sp)
   15350:	2301a903          	lw	s2,560(gp) # 23af0 <_impure_ptr>
   15354:	00050413          	mv	s0,a0
   15358:	00090663          	beqz	s2,15364 <fflush+0x2c>
   1535c:	03892783          	lw	a5,56(s2)
   15360:	06078463          	beqz	a5,153c8 <fflush+0x90>
   15364:	00c41783          	lh	a5,12(s0)
   15368:	00000493          	li	s1,0
   1536c:	04078063          	beqz	a5,153ac <fflush+0x74>
   15370:	06442703          	lw	a4,100(s0)
   15374:	00177713          	andi	a4,a4,1
   15378:	00071663          	bnez	a4,15384 <fflush+0x4c>
   1537c:	2007f793          	andi	a5,a5,512
   15380:	04078a63          	beqz	a5,153d4 <fflush+0x9c>
   15384:	00040593          	mv	a1,s0
   15388:	00090513          	mv	a0,s2
   1538c:	c81ff0ef          	jal	ra,1500c <__sflush_r>
   15390:	06442783          	lw	a5,100(s0)
   15394:	00050493          	mv	s1,a0
   15398:	0017f793          	andi	a5,a5,1
   1539c:	00079863          	bnez	a5,153ac <fflush+0x74>
   153a0:	00c45783          	lhu	a5,12(s0)
   153a4:	2007f793          	andi	a5,a5,512
   153a8:	02078c63          	beqz	a5,153e0 <fflush+0xa8>
   153ac:	00c12083          	lw	ra,12(sp)
   153b0:	00812403          	lw	s0,8(sp)
   153b4:	00012903          	lw	s2,0(sp)
   153b8:	00048513          	mv	a0,s1
   153bc:	00412483          	lw	s1,4(sp)
   153c0:	01010113          	addi	sp,sp,16
   153c4:	00008067          	ret
   153c8:	00090513          	mv	a0,s2
   153cc:	144000ef          	jal	ra,15510 <__sinit>
   153d0:	f95ff06f          	j	15364 <fflush+0x2c>
   153d4:	05842503          	lw	a0,88(s0)
   153d8:	6c0010ef          	jal	ra,16a98 <__retarget_lock_acquire_recursive>
   153dc:	fa9ff06f          	j	15384 <fflush+0x4c>
   153e0:	05842503          	lw	a0,88(s0)
   153e4:	6cc010ef          	jal	ra,16ab0 <__retarget_lock_release_recursive>
   153e8:	fc5ff06f          	j	153ac <fflush+0x74>
   153ec:	00000597          	auipc	a1,0x0
   153f0:	e6c58593          	addi	a1,a1,-404 # 15258 <_fflush_r>
   153f4:	2281a503          	lw	a0,552(gp) # 23ae8 <_global_impure_ptr>
   153f8:	1490006f          	j	15d40 <_fwalk_reent>

000153fc <_cleanup_r>:
   153fc:	00007597          	auipc	a1,0x7
   15400:	b9458593          	addi	a1,a1,-1132 # 1bf90 <_fclose_r>
   15404:	13d0006f          	j	15d40 <_fwalk_reent>

00015408 <__fp_lock>:
   15408:	06452783          	lw	a5,100(a0)
   1540c:	0017f793          	andi	a5,a5,1
   15410:	00079863          	bnez	a5,15420 <__fp_lock+0x18>
   15414:	00c55783          	lhu	a5,12(a0)
   15418:	2007f793          	andi	a5,a5,512
   1541c:	00078663          	beqz	a5,15428 <__fp_lock+0x20>
   15420:	00000513          	li	a0,0
   15424:	00008067          	ret
   15428:	05852503          	lw	a0,88(a0)
   1542c:	ff010113          	addi	sp,sp,-16
   15430:	00112623          	sw	ra,12(sp)
   15434:	664010ef          	jal	ra,16a98 <__retarget_lock_acquire_recursive>
   15438:	00c12083          	lw	ra,12(sp)
   1543c:	00000513          	li	a0,0
   15440:	01010113          	addi	sp,sp,16
   15444:	00008067          	ret

00015448 <__fp_unlock>:
   15448:	06452783          	lw	a5,100(a0)
   1544c:	0017f793          	andi	a5,a5,1
   15450:	00079863          	bnez	a5,15460 <__fp_unlock+0x18>
   15454:	00c55783          	lhu	a5,12(a0)
   15458:	2007f793          	andi	a5,a5,512
   1545c:	00078663          	beqz	a5,15468 <__fp_unlock+0x20>
   15460:	00000513          	li	a0,0
   15464:	00008067          	ret
   15468:	05852503          	lw	a0,88(a0)
   1546c:	ff010113          	addi	sp,sp,-16
   15470:	00112623          	sw	ra,12(sp)
   15474:	63c010ef          	jal	ra,16ab0 <__retarget_lock_release_recursive>
   15478:	00c12083          	lw	ra,12(sp)
   1547c:	00000513          	li	a0,0
   15480:	01010113          	addi	sp,sp,16
   15484:	00008067          	ret

00015488 <__sfmoreglue>:
   15488:	ff010113          	addi	sp,sp,-16
   1548c:	fff58793          	addi	a5,a1,-1
   15490:	00812423          	sw	s0,8(sp)
   15494:	00179413          	slli	s0,a5,0x1
   15498:	00f40433          	add	s0,s0,a5
   1549c:	00241413          	slli	s0,s0,0x2
   154a0:	00f40433          	add	s0,s0,a5
   154a4:	00341413          	slli	s0,s0,0x3
   154a8:	01212023          	sw	s2,0(sp)
   154ac:	00058913          	mv	s2,a1
   154b0:	07440593          	addi	a1,s0,116
   154b4:	00912223          	sw	s1,4(sp)
   154b8:	00112623          	sw	ra,12(sp)
   154bc:	061010ef          	jal	ra,16d1c <_malloc_r>
   154c0:	00050493          	mv	s1,a0
   154c4:	02050063          	beqz	a0,154e4 <__sfmoreglue+0x5c>
   154c8:	00c50513          	addi	a0,a0,12
   154cc:	0004a023          	sw	zero,0(s1)
   154d0:	0124a223          	sw	s2,4(s1)
   154d4:	00a4a423          	sw	a0,8(s1)
   154d8:	06840613          	addi	a2,s0,104
   154dc:	00000593          	li	a1,0
   154e0:	ef9fa0ef          	jal	ra,103d8 <memset>
   154e4:	00c12083          	lw	ra,12(sp)
   154e8:	00812403          	lw	s0,8(sp)
   154ec:	00012903          	lw	s2,0(sp)
   154f0:	00048513          	mv	a0,s1
   154f4:	00412483          	lw	s1,4(sp)
   154f8:	01010113          	addi	sp,sp,16
   154fc:	00008067          	ret

00015500 <_cleanup>:
   15500:	00007597          	auipc	a1,0x7
   15504:	a9058593          	addi	a1,a1,-1392 # 1bf90 <_fclose_r>
   15508:	2281a503          	lw	a0,552(gp) # 23ae8 <_global_impure_ptr>
   1550c:	0350006f          	j	15d40 <_fwalk_reent>

00015510 <__sinit>:
   15510:	fe010113          	addi	sp,sp,-32
   15514:	00912a23          	sw	s1,20(sp)
   15518:	00050493          	mv	s1,a0
   1551c:	26c18513          	addi	a0,gp,620 # 23b2c <__lock___sinit_recursive_mutex>
   15520:	00112e23          	sw	ra,28(sp)
   15524:	00812c23          	sw	s0,24(sp)
   15528:	01212823          	sw	s2,16(sp)
   1552c:	01312623          	sw	s3,12(sp)
   15530:	01412423          	sw	s4,8(sp)
   15534:	01512223          	sw	s5,4(sp)
   15538:	560010ef          	jal	ra,16a98 <__retarget_lock_acquire_recursive>
   1553c:	0384a783          	lw	a5,56(s1)
   15540:	14079863          	bnez	a5,15690 <__sinit+0x180>
   15544:	0044a403          	lw	s0,4(s1)
   15548:	00000717          	auipc	a4,0x0
   1554c:	eb470713          	addi	a4,a4,-332 # 153fc <_cleanup_r>
   15550:	02e4ae23          	sw	a4,60(s1)
   15554:	2ec48793          	addi	a5,s1,748
   15558:	00300713          	li	a4,3
   1555c:	2ee4a223          	sw	a4,740(s1)
   15560:	2ef4a423          	sw	a5,744(s1)
   15564:	2e04a023          	sw	zero,736(s1)
   15568:	00400793          	li	a5,4
   1556c:	00f42623          	sw	a5,12(s0)
   15570:	00800613          	li	a2,8
   15574:	00000593          	li	a1,0
   15578:	00042023          	sw	zero,0(s0)
   1557c:	00042223          	sw	zero,4(s0)
   15580:	00042423          	sw	zero,8(s0)
   15584:	06042223          	sw	zero,100(s0)
   15588:	00042823          	sw	zero,16(s0)
   1558c:	00042a23          	sw	zero,20(s0)
   15590:	00042c23          	sw	zero,24(s0)
   15594:	05c40513          	addi	a0,s0,92
   15598:	e41fa0ef          	jal	ra,103d8 <memset>
   1559c:	00004a97          	auipc	s5,0x4
   155a0:	e10a8a93          	addi	s5,s5,-496 # 193ac <__sread>
   155a4:	00004a17          	auipc	s4,0x4
   155a8:	e6ca0a13          	addi	s4,s4,-404 # 19410 <__swrite>
